(dp0
Vtime.rel
p1
(lp2
(Vnext
p3
Vnext
p4
tp5
a(S'now'
p6
S'next'
p7
tp8
a(S'as soon as possible'
p9
g7
tp10
asVroute
p11
(lp12
(V12a
p13
V12a
p14
tp15
a(V26a
p16
V26a
p17
tp18
a(V43e
p19
V43e
p20
tp21
a(Vgr
p22
Vgr
p23
tp24
a(V26e
p25
V26e
p26
tp27
a(V26d
p28
V26d
p29
tp30
a(Vgc
p31
Vgc
p32
tp33
a(V67e
p34
V67e
p35
tp36
a(V67f
p37
V67f
p38
tp39
a(V71d
p40
V71d
p41
tp42
a(V71c
p43
V71c
p44
tp45
a(V67a
p46
V67a
p47
tp48
a(V71a
p49
V71a
p50
tp51
a(V67c
p52
V67c
p53
tp54
a(V41d
p55
V41d
p56
tp57
a(V53f
p58
V53f
p59
tp60
a(V41g
p61
V41g
p62
tp63
a(V53c
p64
V53c
p65
tp66
a(V41a
p67
V41a
p68
tp69
a(V41b
p70
V41b
p71
tp72
a(V41c
p73
V41c
p74
tp75
a(V37a
p76
V37a
p77
tp78
a(Vlp
p79
Vlp
p80
tp81
a(V5a
p82
V5a
p83
tp84
a(V5c
p85
V5c
p86
tp87
a(V13c
p88
V13c
p89
tp90
a(V13a
p91
V13a
p92
tp93
a(V13g
p94
V13g
p95
tp96
a(V84a
p97
V84a
p98
tp99
a(V13d
p100
V13d
p101
tp102
a(V13k
p103
V13k
p104
tp105
a(V13j
p106
V13j
p107
tp108
a(V3l
p109
V3l
p110
tp111
a(Vdb
p112
Vdb
p113
tp114
a(V56u
p115
V56u
p116
tp117
a(V21f
p118
V21f
p119
tp120
a(V21d
p121
V21d
p122
tp123
a(Vb
p124
Vb
p125
tp126
a(V21b
p127
V21b
p128
tp129
a(V21c
p130
V21c
p131
tp132
a(V21a
p133
V21a
p134
tp135
a(V13x
p136
V13x
p137
tp138
a(V54c
p139
V54c
p140
tp141
a(V28k
p142
V28k
p143
tp144
a(Vd
p145
Vd
p146
tp147
a(V75b
p148
V75b
p149
tp150
a(V81a
p151
V81a
p152
tp153
a(V81b
p154
V81b
p155
tp156
a(V81c
p157
V81c
p158
tp159
a(V28e
p160
V28e
p161
tp162
a(V75a
p163
V75a
p164
tp165
a(V28g
p166
V28g
p167
tp168
a(V52
p169
V52
p170
tp171
a(V28x
p172
V28x
p173
tp174
a(V69a
p175
V69a
p176
tp177
a(Vt
p178
Vt
p179
tp180
a(V67h
p181
V67h
p182
tp183
a(V93a
p184
V93a
p185
tp186
a(V58v
p187
V58v
p188
tp189
a(V38c
p190
V38c
p191
tp192
a(V24a
p193
V24a
p194
tp195
a(Veba
p196
Veba
p197
tp198
a(V58p
p199
V58p
p200
tp201
a(Vebo
p202
Vebo
p203
tp204
a(V44u
p205
V44u
p206
tp207
a(V26b
p208
V26b
p209
tp210
a(V1d
p211
V1d
p212
tp213
a(Vebs
p214
Vebs
p215
tp216
a(V11a
p217
V11a
p218
tp219
a(V28f
p220
V28f
p221
tp222
a(Vebx
p223
Vebx
p224
tp225
a(V46g
p226
V46g
p227
tp228
a(V64a
p229
V64a
p230
tp231
a(V46f
p232
V46f
p233
tp234
a(V15a
p235
V15a
p236
tp237
a(Vp
p238
Vp
p239
tp240
a(V51a
p241
V51a
p242
tp243
a(V51c
p244
V51c
p245
tp246
a(V51b
p247
V51b
p248
tp249
a(V51e
p250
V51e
p251
tp252
a(V51d
p253
V51d
p254
tp255
a(V51g
p256
V51g
p257
tp258
a(V56e
p259
V56e
p260
tp261
a(V84c
p262
V84c
p263
tp264
a(V84b
p265
V84b
p266
tp267
a(V3m
p268
V3m
p269
tp270
a(V78c
p271
V78c
p272
tp273
a(V11e
p274
V11e
p275
tp276
a(V11d
p277
V11d
p278
tp279
a(V11f
p280
V11f
p281
tp282
a(V59u
p283
V59u
p284
tp285
a(V11c
p286
V11c
p287
tp288
a(V41e
p289
V41e
p290
tp291
a(Vbm
p292
Vbm
p293
tp294
a(Vjl
p295
Vjl
p296
tp297
a(Vbr
p298
Vbr
p299
tp300
a(V31a
p301
V31a
p302
tp303
a(V31e
p304
V31e
p305
tp306
a(V31d
p307
V31d
p308
tp309
a(V59a
p310
V59a
p311
tp312
a(V42m
p313
V42m
p314
tp315
a(Vg
p316
Vg
p317
tp318
a(V36d
p319
V36d
p320
tp321
a(V91a
p322
V91a
p323
tp324
a(V74b
p325
V74b
p326
tp327
a(V36a
p328
V36a
p329
tp330
a(V83b
p331
V83b
p332
tp333
a(V79e
p334
V79e
p335
tp336
a(V79b
p337
V79b
p338
tp339
a(Vw
p340
Vw
p341
tp342
a(Vov
p343
Vov
p344
tp345
a(V42s
p346
V42s
p347
tp348
a(V91s
p349
V91s
p350
tp351
a(V63a
p352
V63a
p353
tp354
a(Vco
p355
Vco
p356
tp357
a(Vcl
p358
Vcl
p359
tp360
a(V16d
p361
V16d
p362
tp363
a(V16f
p364
V16f
p365
tp366
a(V16a
p367
V16a
p368
tp369
a(V16b
p370
V16b
p371
tp372
a(V75c
p373
V75c
p374
tp375
a(V60m
p376
V60m
p377
tp378
a(V63b
p379
V63b
p380
tp381
a(V46h
p382
V46h
p383
tp384
a(V46k
p385
V46k
p386
tp387
a(V75d
p388
V75d
p389
tp390
a(V46d
p391
V46d
p392
tp393
a(V56b
p394
V56b
p395
tp396
a(V56c
p397
V56c
p398
tp399
a(V46a
p400
V46a
p401
tp402
a(Vcv
p403
Vcv
p404
tp405
a(V46b
p406
V46b
p407
tp408
a(V1a
p409
V1a
p410
tp411
a(V1c
p412
V1c
p413
tp414
a(V1b
p415
V1b
p416
tp417
a(Vpg
p418
Vpg
p419
tp420
a(V1f
p421
V1f
p422
tp423
a(V86a
p424
V86a
p425
tp426
a(V86b
p427
V86b
p428
tp429
a(V500
p430
V500
p431
tp432
a(V501
p433
V501
p434
tp435
a(V6a
p436
V6a
p437
tp438
a(V6b
p439
V6b
p440
tp441
a(V6c
p442
V6c
p443
tp444
a(V6d
p445
V6d
p446
tp447
a(V33x
p448
V33x
p449
tp450
a(V100
p451
V100
p452
tp453
a(Vhp
p454
Vhp
p455
tp456
a(V25a
p457
V25a
p458
tp459
a(V17b
p460
V17b
p461
tp462
a(V25d
p463
V25d
p464
tp465
a(V73b
p466
V73b
p467
tp468
a(V33e
p469
V33e
p470
tp471
a(V33d
p472
V33d
p473
tp474
a(V33f
p475
V33f
p476
tp477
a(V18b
p478
V18b
p479
tp480
a(V18c
p481
V18c
p482
tp483
a(V65e
p484
V65e
p485
tp486
a(Vf
p487
Vf
p488
tp489
a(Vml
p490
Vml
p491
tp492
a(V50b
p493
V50b
p494
tp495
a(V77g
p496
V77g
p497
tp498
a(Vr
p499
Vr
p500
tp501
a(V55m
p502
V55m
p503
tp504
a(V77d
p505
V77d
p506
tp507
a(V58c
p508
V58c
p509
tp510
a(V77u
p511
V77u
p512
tp513
a(V36b
p514
V36b
p515
tp516
a(V77b
p517
V77b
p518
tp519
a(V36c
p520
V36c
p521
tp522
a(V89a
p523
V89a
p524
tp525
a(Vavn
p526
Vavn
p527
tp528
a(V77f
p529
V77f
p530
tp531
a(V77a
p532
V77a
p533
tp534
a(V77c
p535
V77c
p536
tp537
a(Vav
p538
Vav
p539
tp540
a(V61b
p541
V61b
p542
tp543
a(V61c
p544
V61c
p545
tp546
a(V61a
p547
V61a
p548
tp549
a(V61f
p550
V61f
p551
tp552
a(V61d
p553
V61d
p554
tp555
a(V13f
p556
V13f
p557
tp558
a(V35a
p559
V35a
p560
tp561
a(V68j
p562
V68j
p563
tp564
a(V68d
p565
V68d
p566
tp567
a(V68g
p568
V68g
p569
tp570
a(V68f
p571
V68f
p572
tp573
a(V47l
p574
V47l
p575
tp576
a(V68b
p577
V68b
p578
tp579
a(V94b
p580
V94b
p581
tp582
a(V94c
p583
V94c
p584
tp585
a(V94a
p586
V94a
p587
tp588
a(V60p
p589
V60p
p590
tp591
a(V60s
p592
V60s
p593
tp594
a(V60e
p595
V60e
p596
tp597
a(V74a
p598
V74a
p599
tp600
a(V88a
p601
V88a
p602
tp603
a(V60a
p604
V60a
p605
tp606
a(V60b
p607
V60b
p608
tp609
a(V55e
p610
V55e
p611
tp612
a(V55d
p613
V55d
p614
tp615
a(V60k
p616
V60k
p617
tp618
a(V55b
p619
V55b
p620
tp621
a(Ve
p622
Ve
p623
tp624
a(Vsw
p625
Vsw
p626
tp627
a(Vu
p628
Vu
p629
tp630
asVdate.day
p631
(lp632
(Vmonday
p633
Vmonday
p634
tp635
a(Vtuesday
p636
Vtuesday
p637
tp638
a(Vthursday
p639
Vthursday
p640
tp641
a(Vtomorrow
p642
Vtomorrow
p643
tp644
a(Vsunday
p645
Vsunday
p646
tp647
a(Vsaturday
p648
Vsaturday
p649
tp650
a(Vtoday
p651
Vtoday
p652
tp653
asVlocation
p654
(lp655
(Vfifth liberty boro
p656
Vfifth liberty boro
p657
tp658
a(Vwaverly and braddock
p659
Vwaverly and braddock
p660
tp661
a(Vellsworth and negley
p662
Vellsworth and negley
p663
tp664
a(Vbell avenue
p665
Vbell avenue
p666
tp667
a(Vnorth avenue and federal street
p668
Vnorth avenue and federal street
p669
tp670
a(Vlea at main
p671
Vlea at main
p672
tp673
a(Vnorth avenue
p674
Vnorth avenue
p675
tp676
a(Vgreen tree
p677
Vgreen tree
p678
tp679
a(Vcarson avenue
p680
Vcarson avenue
p681
tp682
a(Vfortieth at liberty
p683
Vfortieth at liberty
p684
tp685
a(Vmonroeville mall
p686
Vmonroeville mall
p687
tp688
a(Vherron hill
p689
Vherron hill
p690
tp691
a(Vcraft carrick
p692
Vcraft carrick
p693
tp694
a(Vgreenock
p695
Vgreenock
p696
tp697
a(Vforest hills
p698
Vforest hills
p699
tp700
a(Vfifth at market street
p701
Vfifth at market street
p702
tp703
a(Vcmu
p704
Vcmu
p705
tp706
a(Vforbes and east end avenue
p707
Vforbes and east end avenue
p708
tp709
a(Vduquesne
p710
Vduquesne
p711
tp712
a(Vmain harmar
p713
Vmain harmar
p714
tp715
a(Vpitt and south
p716
Vpitt and south
p717
tp718
a(Vchateau street
p719
Vchateau street
p720
tp721
a(Vbroadhead manor
p722
Vbroadhead manor
p723
tp724
a(Vbusway
p725
Vbusway
p726
tp727
a(Vcarson and twenty second
p728
Vcarson and twenty second
p729
tp730
a(Vwest ross
p731
Vwest ross
p732
tp733
a(Vliberty
p734
Vliberty
p735
tp736
a(Vrobinson township
p737
Vrobinson township
p738
tp739
a(Vkelly and west
p740
Vkelly and west
p741
tp742
a(Vwhitehall
p743
Vwhitehall
p744
tp745
a(Vbauseman street
p746
Vbauseman street
p747
tp748
a(Veighteenth wall
p749
Veighteenth wall
p750
tp751
a(Vbeggs and mifflin
p752
Vbeggs and mifflin
p753
tp754
a(Vthirty seventh at penn
p755
Vthirty seventh at penn
p756
tp757
a(Vpioneer in bethel
p758
Vpioneer in bethel
p759
tp760
a(Vedgewood and swissvale station
p761
Vedgewood and swissvale station
p762
tp763
a(Vlebanon in ohara
p764
Vlebanon in ohara
p765
tp766
a(Vnorth craig street
p767
Vnorth craig street
p768
tp769
a(Vpitt penn hills
p770
Vpitt penn hills
p771
tp772
a(Vfifth and maryland
p773
Vfifth and maryland
p774
tp775
a(Vjones avenue
p776
Vjones avenue
p777
tp778
a(Vbrownsville
p779
Vbrownsville
p780
tp781
a(Vnineth
p782
Vnineth
p783
tp784
a(Vbigelow and fifth
p785
Vbigelow and fifth
p786
tp787
a(Vshaw and huey
p788
Vshaw and huey
p789
tp790
a(Vsarah
p791
Vsarah
p792
tp793
a(Vsouth hills village
p794
Vsouth hills village
p795
tp796
a(Vforbes street
p797
Vforbes street
p798
tp799
a(Vbiddle at braddock
p800
Vbiddle at braddock
p801
tp802
a(Vnorth hills
p803
Vnorth hills
p804
tp805
a(Vsmithfield at forbes
p806
Vsmithfield at forbes
p807
tp808
a(Vindiana
p809
Vindiana
p810
tp811
a(Vamanda and charles
p812
Vamanda and charles
p813
tp814
a(Vforbes avenue at grant
p815
Vforbes avenue at grant
p816
tp817
a(Vhazelwood avenue
p818
Vhazelwood avenue
p819
tp820
a(Vhuey at shaw
p821
Vhuey at shaw
p822
tp823
a(Vmain and botsford
p824
Vmain and botsford
p825
tp826
a(Vfifth and bigelow
p827
Vfifth and bigelow
p828
tp829
a(Vbayard at craig
p830
Vbayard at craig
p831
tp832
a(Vmagee
p833
Vmagee
p834
tp835
a(Vhilton hotel
p836
Vhilton hotel
p837
tp838
a(Vsixth and richland
p839
Vsixth and richland
p840
tp841
a(Vthackeray at fifth
p842
Vthackeray at fifth
p843
tp844
a(Vwaverly
p845
Vwaverly
p846
tp847
a(Vmexican war street
p848
Vmexican war street
p849
tp850
a(Vbennett
p851
Vbennett
p852
tp853
a(Vcollege street
p854
Vcollege street
p855
tp856
a(Vnoble moon
p857
Vnoble moon
p858
tp859
a(Vherman street
p860
Vherman street
p861
tp862
a(Vwalnut street
p863
Vwalnut street
p864
tp865
a(Vpittsburgh avenue
p866
Vpittsburgh avenue
p867
tp868
a(Vpride street
p869
Vpride street
p870
tp871
a(Vu s steel building
p872
Vu s steel building
p873
tp874
a(Velizabeth
p875
Velizabeth
p876
tp877
a(Vmckinley street
p878
Vmckinley street
p879
tp880
a(Vliberty and pearl
p881
Vliberty and pearl
p882
tp883
a(Vchateau and pennsylvania
p884
Vchateau and pennsylvania
p885
tp886
a(Vbeaver at kroll
p887
Vbeaver at kroll
p888
tp889
a(Vwaterfront
p890
Vwaterfront
p891
tp892
a(Varch
p893
Varch
p894
tp895
a(Vnegley at elmer
p896
Vnegley at elmer
p897
tp898
a(Vbroadway shaler
p899
Vbroadway shaler
p900
tp901
a(Vthird
p902
Vthird
p903
tp904
a(Vcedar avenue
p905
Vcedar avenue
p906
tp907
a(Vcarlow college
p908
Vcarlow college
p909
tp910
a(Vseneca at forbes
p911
Vseneca at forbes
p912
tp913
a(Vbeaver avenue
p914
Vbeaver avenue
p915
tp916
a(Vmurray
p917
Vmurray
p918
tp919
a(Vpenn at butler
p920
Vpenn at butler
p921
tp922
a(Vfifth and bellefield
p923
Vfifth and bellefield
p924
tp925
a(Vtenth at ann green tree
p926
Vtenth at ann green tree
p927
tp928
a(Vfourth and hawkins
p929
Vfourth and hawkins
p930
tp931
a(Vsouth whitaker
p932
Vsouth whitaker
p933
tp934
a(Vmain bethel
p935
Vmain bethel
p936
tp937
a(Vbeggs
p938
Vbeggs
p939
tp940
a(Vsheraden station
p941
Vsheraden station
p942
tp943
a(Vkennywood and glen
p944
Vkennywood and glen
p945
tp946
a(Vforbes and braddock
p947
Vforbes and braddock
p948
tp949
a(Vcentury three mall
p950
Vcentury three mall
p951
tp952
a(Vlibrary at bell
p953
Vlibrary at bell
p954
tp955
a(Vwest and kelly
p956
Vwest and kelly
p957
tp958
a(Vmillvale and yew
p959
Vmillvale and yew
p960
tp961
a(Vliberty at thirty fourth
p962
Vliberty at thirty fourth
p963
tp964
a(Vverona mckeesport
p965
Vverona mckeesport
p966
tp967
a(Vtwenty second street
p968
Vtwenty second street
p969
tp970
a(Vnorth churchill
p971
Vnorth churchill
p972
tp973
a(Vcenter street
p974
Vcenter street
p975
tp976
a(Vgrant and bessemer
p977
Vgrant and bessemer
p978
tp979
a(Vbeaver at north
p980
Vbeaver at north
p981
tp982
a(Vdobson wall
p983
Vdobson wall
p984
tp985
a(Vwest and thirteenth
p986
Vwest and thirteenth
p987
tp988
a(Vthirteenth at bell
p989
Vthirteenth at bell
p990
tp991
a(Vsouth and peebles
p992
Vsouth and peebles
p993
tp994
a(Vvan braam
p995
Vvan braam
p996
tp997
a(Vgrant at eighth
p998
Vgrant at eighth
p999
tp1000
a(Vbeatty
p1001
Vbeatty
p1002
tp1003
a(Vbigelow boulevard
p1004
Vbigelow boulevard
p1005
tp1006
a(Vjane street
p1007
Vjane street
p1008
tp1009
a(Vthe city
p1010
Vthe city
p1011
tp1012
a(Vcarson at eighteenth
p1013
Vcarson at eighteenth
p1014
tp1015
a(Vthackeray
p1016
Vthackeray
p1017
tp1018
a(Vwaterfront bridge
p1019
Vwaterfront bridge
p1020
tp1021
a(Vtown center
p1022
Vtown center
p1023
tp1024
a(Vvandergrift
p1025
Vvandergrift
p1026
tp1027
a(Vfourth plum
p1028
Vfourth plum
p1029
tp1030
a(Vross wall
p1031
Vross wall
p1032
tp1033
a(Vfifth and highland
p1034
Vfifth and highland
p1035
tp1036
a(Vfulton at north
p1037
Vfulton at north
p1038
tp1039
a(Vbellway
p1040
Vbellway
p1041
tp1042
a(Vwood and forbes
p1043
Vwood and forbes
p1044
tp1045
a(Vmain at penn
p1046
Vmain at penn
p1047
tp1048
a(Varlington road
p1049
Varlington road
p1050
tp1051
a(Vnorth collier
p1052
Vnorth collier
p1053
tp1054
a(Vamity street and tenth
p1055
Vamity street and tenth
p1056
tp1057
a(Valma at haldane
p1058
Valma at haldane
p1059
tp1060
a(Vstanton heights
p1061
Vstanton heights
p1062
tp1063
a(Vnorth bessemer
p1064
Vnorth bessemer
p1065
tp1066
a(Vwilkinsburg
p1067
Vwilkinsburg
p1068
tp1069
a(Vwestern
p1070
Vwestern
p1071
tp1072
a(Vkelly and hay
p1073
Vkelly and hay
p1074
tp1075
a(Vpenn at highland
p1076
Vpenn at highland
p1077
tp1078
a(Vcarrick
p1079
Vcarrick
p1080
tp1081
a(Vhays
p1082
Vhays
p1083
tp1084
a(Vpresto
p1085
Vpresto
p1086
tp1087
a(Vtree
p1088
Vtree
p1089
tp1090
a(Vblackridge
p1091
Vblackridge
p1092
tp1093
a(Vkennedy avenue
p1094
Vkennedy avenue
p1095
tp1096
a(Vbridge
p1097
Vbridge
p1098
tp1099
a(Vsixth and bigelow
p1100
Vsixth and bigelow
p1101
tp1102
a(Vthe airport
p1103
Vthe airport
p1104
tp1105
a(Vshady at hastings
p1106
Vshady at hastings
p1107
tp1108
a(Vpenn avenue
p1109
Vpenn avenue
p1110
tp1111
a(Vmelwood at centre
p1112
Vmelwood at centre
p1113
tp1114
a(Vbrighton avenue
p1115
Vbrighton avenue
p1116
tp1117
a(Vcraig street at winthrop
p1118
Vcraig street at winthrop
p1119
tp1120
a(Vswissvale
p1121
Vswissvale
p1122
tp1123
a(Vbrownsville and bausman
p1124
Vbrownsville and bausman
p1125
tp1126
a(Veighteenth and oliver
p1127
Veighteenth and oliver
p1128
tp1129
a(Vlincoln highway
p1130
Vlincoln highway
p1131
tp1132
a(Vlinwood and evans
p1133
Vlinwood and evans
p1134
tp1135
a(Vthirty sixth street
p1136
Vthirty sixth street
p1137
tp1138
a(Vgrimes and charles
p1139
Vgrimes and charles
p1140
tp1141
a(Vcamp
p1142
Vcamp
p1143
tp1144
a(Vmiddle avenue
p1145
Vmiddle avenue
p1146
tp1147
a(Vforbes reserve
p1148
Vforbes reserve
p1149
tp1150
a(Vhighland avenue and penn avenue
p1151
Vhighland avenue and penn avenue
p1152
tp1153
a(Vforbes at atwood
p1154
Vforbes at atwood
p1155
tp1156
a(Vwest run and main
p1157
Vwest run and main
p1158
tp1159
a(Vnineteenth
p1160
Vnineteenth
p1161
tp1162
a(Vforbes and hawkins
p1163
Vforbes and hawkins
p1164
tp1165
a(Vreserve
p1166
Vreserve
p1167
tp1168
a(Veast end
p1169
Veast end
p1170
tp1171
a(Vbraddock and biddle
p1172
Vbraddock and biddle
p1173
tp1174
a(Vcoal glenshaw
p1175
Vcoal glenshaw
p1176
tp1177
a(Vedgewood street apollo
p1178
Vedgewood street apollo
p1179
tp1180
a(Vtenth and ann
p1181
Vtenth and ann
p1182
tp1183
a(Vcoal carrick
p1184
Vcoal carrick
p1185
tp1186
a(Vcoal at franklin
p1187
Vcoal at franklin
p1188
tp1189
a(Vshady avenue and forbes avenue
p1190
Vshady avenue and forbes avenue
p1191
tp1192
a(Vaspinwall
p1193
Vaspinwall
p1194
tp1195
a(Vseventeenth street
p1196
Vseventeenth street
p1197
tp1198
a(Vheisel at eighth
p1199
Vheisel at eighth
p1200
tp1201
a(Vsouth eighteenth street
p1202
Vsouth eighteenth street
p1203
tp1204
a(Vnoble and washington
p1205
Vnoble and washington
p1206
tp1207
a(Vwest thirty
p1208
Vwest thirty
p1209
tp1210
a(Vwinterburn
p1211
Vwinterburn
p1212
tp1213
a(Vbell and jones
p1214
Vbell and jones
p1215
tp1216
a(Vtesla and bigelow
p1217
Vtesla and bigelow
p1218
tp1219
a(Vwest end busway
p1220
Vwest end busway
p1221
tp1222
a(Valger street
p1223
Valger street
p1224
tp1225
a(Vfifth at halket
p1226
Vfifth at halket
p1227
tp1228
a(Veast vue
p1229
Veast vue
p1230
tp1231
a(Vhawkins at fourth
p1232
Vhawkins at fourth
p1233
tp1234
a(Vfifth and tennyson
p1235
Vfifth and tennyson
p1236
tp1237
a(Vshadyside
p1238
Vshadyside
p1239
tp1240
a(Vfranklin park
p1241
Vfranklin park
p1242
tp1243
a(Vforbes avenue and grant
p1244
Vforbes avenue and grant
p1245
tp1246
a(Vtenth white oak
p1247
Vtenth white oak
p1248
tp1249
a(Vbrownsville road and mckinley
p1250
Vbrownsville road and mckinley
p1251
tp1252
a(Vbrighton heights
p1253
Vbrighton heights
p1254
tp1255
a(Vlibrary and cornell
p1256
Vlibrary and cornell
p1257
tp1258
a(Vpenn at sixteenth
p1259
Vpenn at sixteenth
p1260
tp1261
a(Vsecond and carson
p1262
Vsecond and carson
p1263
tp1264
a(Vninth at ann
p1265
Vninth at ann
p1266
tp1267
a(Vfederal at north
p1268
Vfederal at north
p1269
tp1270
a(Vbrushton
p1271
Vbrushton
p1272
tp1273
a(Vgiant eagle
p1274
Vgiant eagle
p1275
tp1276
a(Velm street
p1277
Velm street
p1278
tp1279
a(Vpittsburgh international airport
p1280
Vpittsburgh international airport
p1281
tp1282
a(Vsouth eighteenth center
p1283
Vsouth eighteenth center
p1284
tp1285
a(Veast carson street
p1286
Veast carson street
p1287
tp1288
a(Vpitt
p1289
Vpitt
p1290
tp1291
a(Vseventh and penn
p1292
Vseventh and penn
p1293
tp1294
a(Vrankin and hawkins
p1295
Vrankin and hawkins
p1296
tp1297
a(Vgrandview
p1298
Vgrandview
p1299
tp1300
a(Vliberty at wood
p1301
Vliberty at wood
p1302
tp1303
a(Vforbes and morewood avenue wall
p1304
Vforbes and morewood avenue wall
p1305
tp1306
a(Vculmerville
p1307
Vculmerville
p1308
tp1309
a(Vhowley and main
p1310
Vhowley and main
p1311
tp1312
a(Vwestpark
p1313
Vwestpark
p1314
tp1315
a(Vthirty sixth at penn
p1316
Vthirty sixth at penn
p1317
tp1318
a(Vmain street
p1319
Vmain street
p1320
tp1321
a(Veast busway
p1322
Veast busway
p1323
tp1324
a(Vcheswick
p1325
Vcheswick
p1326
tp1327
a(Vfifth and harriett
p1328
Vfifth and harriett
p1329
tp1330
a(Vschenley oval
p1331
Vschenley oval
p1332
tp1333
a(Vcraft
p1334
Vcraft
p1335
tp1336
a(Vlinden and beech
p1337
Vlinden and beech
p1338
tp1339
a(Vshady braddock hills
p1340
Vshady braddock hills
p1341
tp1342
a(Vohara township
p1343
Vohara township
p1344
tp1345
a(Vcentre mount lebanon
p1346
Vcentre mount lebanon
p1347
tp1348
a(Vcedar boulevard
p1349
Vcedar boulevard
p1350
tp1351
a(Vpolish hill
p1352
Vpolish hill
p1353
tp1354
a(Vmagee womens hospital
p1355
Vmagee womens hospital
p1356
tp1357
a(Vdobson
p1358
Vdobson
p1359
tp1360
a(Vcharles street
p1361
Vcharles street
p1362
tp1363
a(Vfourth street and bell
p1364
Vfourth street and bell
p1365
tp1366
a(Vanderson and isabella
p1367
Vanderson and isabella
p1368
tp1369
a(Vtalbot at fifth
p1370
Vtalbot at fifth
p1371
tp1372
a(Vpresby
p1373
Vpresby
p1374
tp1375
a(Vseventh bridge
p1376
Vseventh bridge
p1377
tp1378
a(Veighth avenue at ann
p1379
Veighth avenue at ann
p1380
tp1381
a(Vhighland avenue
p1382
Vhighland avenue
p1383
tp1384
a(Vwaterworks
p1385
Vwaterworks
p1386
tp1387
a(Vmcdevitt and forbes
p1388
Vmcdevitt and forbes
p1389
tp1390
a(Vpenn and thirty seventh
p1391
Vpenn and thirty seventh
p1392
tp1393
a(Vkathleen and haberman
p1394
Vkathleen and haberman
p1395
tp1396
a(Vpitt university
p1397
Vpitt university
p1398
tp1399
a(Vmain street at penn
p1400
Vmain street at penn
p1401
tp1402
a(Vnorth park mall
p1403
Vnorth park mall
p1404
tp1405
a(Vann at tenth
p1406
Vann at tenth
p1407
tp1408
a(Vsouth eighteenth and arlington
p1409
Vsouth eighteenth and arlington
p1410
tp1411
a(Vswissvale avenue
p1412
Vswissvale avenue
p1413
tp1414
a(Vwest elizabeth
p1415
Vwest elizabeth
p1416
tp1417
a(Vmercy hospital
p1418
Vmercy hospital
p1419
tp1420
a(Vjohnston homestead
p1421
Vjohnston homestead
p1422
tp1423
a(Vwood wilmerding
p1424
Vwood wilmerding
p1425
tp1426
a(Vforbes at braddock
p1427
Vforbes at braddock
p1428
tp1429
a(Veast pittsburgh
p1430
Veast pittsburgh
p1431
tp1432
a(Vsprindale
p1433
Vsprindale
p1434
tp1435
a(Vninth at penn
p1436
Vninth at penn
p1437
tp1438
a(Vnoble and dickson
p1439
Vnoble and dickson
p1440
tp1441
a(Vwalnut and coal
p1442
Vwalnut and coal
p1443
tp1444
a(Vsixth at liberty
p1445
Vsixth at liberty
p1446
tp1447
a(Vbeech and linden
p1448
Vbeech and linden
p1449
tp1450
a(Vthe zoo
p1451
Vthe zoo
p1452
tp1453
a(Vforbes avenue and murray avenue
p1454
Vforbes avenue and murray avenue
p1455
tp1456
a(Vverona oakland
p1457
Vverona oakland
p1458
tp1459
a(Vfifth at fourth
p1460
Vfifth at fourth
p1461
tp1462
a(Velm
p1463
Velm
p1464
tp1465
a(Vwoodstock
p1466
Vwoodstock
p1467
tp1468
a(Vhay
p1469
Vhay
p1470
tp1471
a(Vjones and bell
p1472
Vjones and bell
p1473
tp1474
a(Vgeorgia at alice
p1475
Vgeorgia at alice
p1476
tp1477
a(Vpenn at fortieth
p1478
Vpenn at fortieth
p1479
tp1480
a(Vyew and millvale
p1481
Vyew and millvale
p1482
tp1483
a(Vbigelow and fifth avenue
p1484
Vbigelow and fifth avenue
p1485
tp1486
a(Vhay street
p1487
Vhay street
p1488
tp1489
a(Voakdale
p1490
Voakdale
p1491
tp1492
a(Veleventh and talbot
p1493
Veleventh and talbot
p1494
tp1495
a(Vallegheny center
p1496
Vallegheny center
p1497
tp1498
a(Vsouth wall
p1499
Vsouth wall
p1500
tp1501
a(Vshadyside hospital
p1502
Vshadyside hospital
p1503
tp1504
a(Vsteps
p1505
Vsteps
p1506
tp1507
a(Vbeaver and island
p1508
Vbeaver and island
p1509
tp1510
a(Vfifth avenue at craft
p1511
Vfifth avenue at craft
p1512
tp1513
a(Vlibrary in hays
p1514
Vlibrary in hays
p1515
tp1516
a(Vcentre
p1517
Vcentre
p1518
tp1519
a(Vwood at forbes
p1520
Vwood at forbes
p1521
tp1522
a(Vcedar and north
p1523
Vcedar and north
p1524
tp1525
a(Vwhitaker
p1526
Vwhitaker
p1527
tp1528
a(Vsecond at grant
p1529
Vsecond at grant
p1530
tp1531
a(Vlydia at connor
p1532
Vlydia at connor
p1533
tp1534
a(Vwhitaker reserve
p1535
Vwhitaker reserve
p1536
tp1537
a(Vnorth and arch
p1538
Vnorth and arch
p1539
tp1540
a(Veast ohio
p1541
Veast ohio
p1542
tp1543
a(Vplum
p1544
Vplum
p1545
tp1546
a(Vhutchinson
p1547
Vhutchinson
p1548
tp1549
a(Vforbes and fifth
p1550
Vforbes and fifth
p1551
tp1552
a(Vrosedale
p1553
Vrosedale
p1554
tp1555
a(Vforbes and murdoch
p1556
Vforbes and murdoch
p1557
tp1558
a(Vcreighton
p1559
Vcreighton
p1560
tp1561
a(Vthe waterfront
p1562
Vthe waterfront
p1563
tp1564
a(Vcurry
p1565
Vcurry
p1566
tp1567
a(Vmaryland avenue
p1568
Vmaryland avenue
p1569
tp1570
a(Vfifth penn hills
p1571
Vfifth penn hills
p1572
tp1573
a(Vdiamond and sixth
p1574
Vdiamond and sixth
p1575
tp1576
a(Vmarshall
p1577
Vmarshall
p1578
tp1579
a(Vben avon
p1580
Vben avon
p1581
tp1582
a(Vfifth at huey
p1583
Vfifth at huey
p1584
tp1585
a(Vcable and linden
p1586
Vcable and linden
p1587
tp1588
a(Vmurray and beacon
p1589
Vmurray and beacon
p1590
tp1591
a(Vfifth and mckee
p1592
Vfifth and mckee
p1593
tp1594
a(Vfifth and aiken
p1595
Vfifth and aiken
p1596
tp1597
a(Vspring
p1598
Vspring
p1599
tp1600
a(Vjane
p1601
Vjane
p1602
tp1603
a(Vtennyson at fifth
p1604
Vtennyson at fifth
p1605
tp1606
a(Vfifth at shady
p1607
Vfifth at shady
p1608
tp1609
a(Vforbes and south braddock
p1610
Vforbes and south braddock
p1611
tp1612
a(Vport vue
p1613
Vport vue
p1614
tp1615
a(Vbraddock at forbes
p1616
Vbraddock at forbes
p1617
tp1618
a(Vforbes at magee
p1619
Vforbes at magee
p1620
tp1621
a(Vcoal at swissvale
p1622
Vcoal at swissvale
p1623
tp1624
a(Vhighland park
p1625
Vhighland park
p1626
tp1627
a(Vbrownsville road
p1628
Vbrownsville road
p1629
tp1630
a(Vjuvenile
p1631
Vjuvenile
p1632
tp1633
a(Vfifth and sheridan
p1634
Vfifth and sheridan
p1635
tp1636
a(Vkelly street
p1637
Vkelly street
p1638
tp1639
a(Vmurray at coal
p1640
Vmurray at coal
p1641
tp1642
a(Veast boulevard
p1643
Veast boulevard
p1644
tp1645
a(Vpride and fifth
p1646
Vpride and fifth
p1647
tp1648
a(Vfifth and elm
p1649
Vfifth and elm
p1650
tp1651
a(Vwestern at brighton
p1652
Vwestern at brighton
p1653
tp1654
a(Vella and liberty avenue
p1655
Vella and liberty avenue
p1656
tp1657
a(Vross park
p1658
Vross park
p1659
tp1660
a(Vforbes and ross
p1661
Vforbes and ross
p1662
tp1663
a(Vlysle
p1664
Vlysle
p1665
tp1666
a(Vwest busway
p1667
Vwest busway
p1668
tp1669
a(Vbellevue
p1670
Vbellevue
p1671
tp1672
a(Varlington avenue
p1673
Varlington avenue
p1674
tp1675
a(Vann at eighth
p1676
Vann at eighth
p1677
tp1678
a(Vjones
p1679
Vjones
p1680
tp1681
a(Vforbes and magee
p1682
Vforbes and magee
p1683
tp1684
a(Voxford drive center
p1685
Voxford drive center
p1686
tp1687
a(Vemsworth
p1688
Vemsworth
p1689
tp1690
a(Veva and beatty
p1691
Veva and beatty
p1692
tp1693
a(Vchateau at sheffield
p1694
Vchateau at sheffield
p1695
tp1696
a(Vpenn station
p1697
Vpenn station
p1698
tp1699
a(Vfifth and moultrie
p1700
Vfifth and moultrie
p1701
tp1702
a(Vthirtieth and brereton
p1703
Vthirtieth and brereton
p1704
tp1705
a(Vpoint breeze
p1706
Vpoint breeze
p1707
tp1708
a(Vlinden at beech
p1709
Vlinden at beech
p1710
tp1711
a(Vfifth at maryland
p1712
Vfifth at maryland
p1713
tp1714
a(Vsouth eighteenth
p1715
Vsouth eighteenth
p1716
tp1717
a(Vtenth and herron
p1718
Vtenth and herron
p1719
tp1720
a(Vcoal and rebecca
p1721
Vcoal and rebecca
p1722
tp1723
a(Vevans and lysle
p1724
Vevans and lysle
p1725
tp1726
a(Vfifth and craig
p1727
Vfifth and craig
p1728
tp1729
a(Vcraig brookline
p1730
Vcraig brookline
p1731
tp1732
a(Velm and edgewood
p1733
Velm and edgewood
p1734
tp1735
a(Vtrade and centre
p1736
Vtrade and centre
p1737
tp1738
a(Vtwenty sixth
p1739
Vtwenty sixth
p1740
tp1741
a(Vmurray and loretta street
p1742
Vmurray and loretta street
p1743
tp1744
a(Veighth at heisel bethel
p1745
Veighth at heisel bethel
p1746
tp1747
a(Vbellevue boro
p1748
Vbellevue boro
p1749
tp1750
a(Vninth street at penn
p1751
Vninth street at penn
p1752
tp1753
a(Vnorth at cedar
p1754
Vnorth at cedar
p1755
tp1756
a(Vold browns hill road at garetta
p1757
Vold browns hill road at garetta
p1758
tp1759
a(Vthirty ninth
p1760
Vthirty ninth
p1761
tp1762
a(Vcamp horne road
p1763
Vcamp horne road
p1764
tp1765
a(Vbailie and evans
p1766
Vbailie and evans
p1767
tp1768
a(Vlysle boulevard
p1769
Vlysle boulevard
p1770
tp1771
a(Vbraddock and eleventh
p1772
Vbraddock and eleventh
p1773
tp1774
a(Vwashington at noble
p1775
Vwashington at noble
p1776
tp1777
a(Vpenn ave
p1778
Vpenn ave
p1779
tp1780
a(Vforbes and murray scott
p1781
Vforbes and murray scott
p1782
tp1783
a(Vfifth avenue and craft
p1784
Vfifth avenue and craft
p1785
tp1786
a(Vshady at fifth
p1787
Vshady at fifth
p1788
tp1789
a(Vmckeesport
p1790
Vmckeesport
p1791
tp1792
a(Vfranklin and coal
p1793
Vfranklin and coal
p1794
tp1795
a(Vthe junction
p1796
Vthe junction
p1797
tp1798
a(Vthirty eighth at penn
p1799
Vthirty eighth at penn
p1800
tp1801
a(Vtwentieth
p1802
Vtwentieth
p1803
tp1804
a(Vcraig at fifth
p1805
Vcraig at fifth
p1806
tp1807
a(Vsouth hills
p1808
Vsouth hills
p1809
tp1810
a(Vgist and forbes
p1811
Vgist and forbes
p1812
tp1813
a(Vshady avenue and highmont
p1814
Vshady avenue and highmont
p1815
tp1816
a(Vneville
p1817
Vneville
p1818
tp1819
a(Vbus station
p1820
Vbus station
p1821
tp1822
a(Vfranklin
p1823
Vfranklin
p1824
tp1825
a(Vbeeler and forbes
p1826
Vbeeler and forbes
p1827
tp1828
a(Vchurchill
p1829
Vchurchill
p1830
tp1831
a(Vfortieth street
p1832
Vfortieth street
p1833
tp1834
a(Vsouth braddock
p1835
Vsouth braddock
p1836
tp1837
a(Vfrick park
p1838
Vfrick park
p1839
tp1840
a(Vfifth avenue and atwood street
p1841
Vfifth avenue and atwood street
p1842
tp1843
a(Vkelly and pitt
p1844
Vkelly and pitt
p1845
tp1846
a(Votomac
p1847
Votomac
p1848
tp1849
a(Vwood verona
p1850
Vwood verona
p1851
tp1852
a(Vswissvale bus station
p1853
Vswissvale bus station
p1854
tp1855
a(Vdowntown
p1856
Vdowntown
p1857
tp1858
a(Vbraddock at sanders center
p1859
Vbraddock at sanders center
p1860
tp1861
a(Vwest eighth
p1862
Vwest eighth
p1863
tp1864
a(Vwebster
p1865
Vwebster
p1866
tp1867
a(Vhawkins street
p1868
Vhawkins street
p1869
tp1870
a(Vforbes and murray
p1871
Vforbes and murray
p1872
tp1873
a(Vtenth at amity
p1874
Vtenth at amity
p1875
tp1876
a(Veast mckeesport
p1877
Veast mckeesport
p1878
tp1879
a(Vmiffin at magee
p1880
Vmiffin at magee
p1881
tp1882
a(Vpittsburgh airport
p1883
Vpittsburgh airport
p1884
tp1885
a(Vtenth and east end
p1886
Vtenth and east end
p1887
tp1888
a(Vfortieth and tenth avenue
p1889
Vfortieth and tenth avenue
p1890
tp1891
a(Vfifth at lysle
p1892
Vfifth at lysle
p1893
tp1894
a(Vpine
p1895
Vpine
p1896
tp1897
a(Vfourth
p1898
Vfourth
p1899
tp1900
a(Vthirty sixth
p1901
Vthirty sixth
p1902
tp1903
a(Vnorth shore
p1904
Vnorth shore
p1905
tp1906
a(Vbethel
p1907
Vbethel
p1908
tp1909
a(Valger
p1910
Valger
p1911
tp1912
a(Vbell and ann
p1913
Vbell and ann
p1914
tp1915
a(Vfifth ave
p1916
Vfifth ave
p1917
tp1918
a(Vtwenty eight
p1919
Vtwenty eight
p1920
tp1921
a(Veighth
p1922
Veighth
p1923
tp1924
a(Vfifth avenue and bigelow
p1925
Vfifth avenue and bigelow
p1926
tp1927
a(Vspring hill
p1928
Vspring hill
p1929
tp1930
a(Vkaufmann 's
p1931
Vkaufmann's
p1932
tp1933
a(Vforbes at east end
p1934
Vforbes at east end
p1935
tp1936
a(Vgreenfield
p1937
Vgreenfield
p1938
tp1939
a(Vcourthouse
p1940
Vcourthouse
p1941
tp1942
a(Vwallace
p1943
Vwallace
p1944
tp1945
a(Vlinden and bessemer
p1946
Vlinden and bessemer
p1947
tp1948
a(Vcharles and grimes
p1949
Vcharles and grimes
p1950
tp1951
a(Vnorth homewood
p1952
Vnorth homewood
p1953
tp1954
a(Vlebanon school
p1955
Vlebanon school
p1956
tp1957
a(Vmain
p1958
Vmain
p1959
tp1960
a(Vtexas
p1961
Vtexas
p1962
tp1963
a(Vjones bethel
p1964
Vjones bethel
p1965
tp1966
a(Vhamilton
p1967
Vhamilton
p1968
tp1969
a(Varnold
p1970
Varnold
p1971
tp1972
a(Vchateau at adams
p1973
Vchateau at adams
p1974
tp1975
a(Vforbes at craft
p1976
Vforbes at craft
p1977
tp1978
a(Vsam 's club
p1979
Vsam's club
p1980
tp1981
a(Vfifth street
p1982
Vfifth street
p1983
tp1984
a(Vherron and ruthven
p1985
Vherron and ruthven
p1986
tp1987
a(Vthe busway
p1988
Vthe busway
p1989
tp1990
a(Vcoal street
p1991
Vcoal street
p1992
tp1993
a(Vbeacon and evans
p1994
Vbeacon and evans
p1995
tp1996
a(Vwood in creighton
p1997
Vwood in creighton
p1998
tp1999
a(Vwalnut at lysle
p2000
Vwalnut at lysle
p2001
tp2002
a(Vturtle
p2003
Vturtle
p2004
tp2005
a(Vmain oakmont
p2006
Vmain oakmont
p2007
tp2008
a(Vmain at howley
p2009
Vmain at howley
p2010
tp2011
a(Vpeebles at forbes
p2012
Vpeebles at forbes
p2013
tp2014
a(Vchesterfield and fifth
p2015
Vchesterfield and fifth
p2016
tp2017
a(Vforward avenue
p2018
Vforward avenue
p2019
tp2020
a(Voklahoma
p2021
Voklahoma
p2022
tp2023
a(Vcraig at bayard
p2024
Vcraig at bayard
p2025
tp2026
a(Vbrighton road
p2027
Vbrighton road
p2028
tp2029
a(Vseventh avenue
p2030
Vseventh avenue
p2031
tp2032
a(Vshady and fifth
p2033
Vshady and fifth
p2034
tp2035
a(Vmunhall
p2036
Vmunhall
p2037
tp2038
a(Vseventh
p2039
Vseventh
p2040
tp2041
a(Vpenn avenue and highland avenue
p2042
Vpenn avenue and highland avenue
p2043
tp2044
a(Vhuey at petty
p2045
Vhuey at petty
p2046
tp2047
a(Vforbes and craig
p2048
Vforbes and craig
p2049
tp2050
a(Vgist and fifth
p2051
Vgist and fifth
p2052
tp2053
a(Vsmithfield street
p2054
Vsmithfield street
p2055
tp2056
a(Vcoal in bethel
p2057
Vcoal in bethel
p2058
tp2059
a(Vemahlea at hazelwood
p2060
Vemahlea at hazelwood
p2061
tp2062
a(Vcoal street at walnut
p2063
Vcoal street at walnut
p2064
tp2065
a(Vfirst
p2066
Vfirst
p2067
tp2068
a(Vsouth at trenton
p2069
Vsouth at trenton
p2070
tp2071
a(Vmall avenue
p2072
Vmall avenue
p2073
tp2074
a(Vgrant street
p2075
Vgrant street
p2076
tp2077
a(Vsixth avenue
p2078
Vsixth avenue
p2079
tp2080
a(Vsixth and diamond
p2081
Vsixth and diamond
p2082
tp2083
a(Vcarson
p2084
Vcarson
p2085
tp2086
a(Vbenett
p2087
Vbenett
p2088
tp2089
a(Vpenn and sixteenth
p2090
Vpenn and sixteenth
p2091
tp2092
a(Vkelly street and west
p2093
Vkelly street and west
p2094
tp2095
a(Vkelly at hay
p2096
Vkelly at hay
p2097
tp2098
a(Vpittsburgh
p2099
Vpittsburgh
p2100
tp2101
a(Vmifflin
p2102
Vmifflin
p2103
tp2104
a(Vkirkpatrick
p2105
Vkirkpatrick
p2106
tp2107
a(Vliberty and sixteenth
p2108
Vliberty and sixteenth
p2109
tp2110
a(Vfifth avenue and market
p2111
Vfifth avenue and market
p2112
tp2113
a(Vcentre and millvale
p2114
Vcentre and millvale
p2115
tp2116
a(Vcrafton
p2117
Vcrafton
p2118
tp2119
a(Vdickson and eighth
p2120
Vdickson and eighth
p2121
tp2122
a(Vgrand avenue
p2123
Vgrand avenue
p2124
tp2125
a(Vgosser at camfield
p2126
Vgosser at camfield
p2127
tp2128
a(Vcraig
p2129
Vcraig
p2130
tp2131
a(Vann
p2132
Vann
p2133
tp2134
a(Veast carson and twenty first
p2135
Veast carson and twenty first
p2136
tp2137
a(Vfloreffe
p2138
Vfloreffe
p2139
tp2140
a(Vwest mifflin
p2141
Vwest mifflin
p2142
tp2143
a(Vzoo
p2144
Vzoo
p2145
tp2146
a(Vmckee
p2147
Vmckee
p2148
tp2149
a(Vfifth at oakland
p2150
Vfifth at oakland
p2151
tp2152
a(Vjefferson
p2153
Vjefferson
p2154
tp2155
a(Vlincoln way edgewood
p2156
Vlincoln way edgewood
p2157
tp2158
a(Vbigelow boulevard and fifth avenue
p2159
Vbigelow boulevard and fifth avenue
p2160
tp2161
a(Vduquesne boulevard
p2162
Vduquesne boulevard
p2163
tp2164
a(Vverona
p2165
Vverona
p2166
tp2167
a(Vrankin
p2168
Vrankin
p2169
tp2170
a(Vann and eighth
p2171
Vann and eighth
p2172
tp2173
a(Vann at seventh
p2174
Vann at seventh
p2175
tp2176
a(Vsoho
p2177
Vsoho
p2178
tp2179
a(Vfifth and sinclair
p2180
Vfifth and sinclair
p2181
tp2182
a(Vlysle at fifth
p2183
Vlysle at fifth
p2184
tp2185
a(Vthirtieth at penn carrick
p2186
Vthirtieth at penn carrick
p2187
tp2188
a(Vtalbot
p2189
Vtalbot
p2190
tp2191
a(Vfourth at hawkins
p2192
Vfourth at hawkins
p2193
tp2194
a(Vsmithfield at fifth
p2195
Vsmithfield at fifth
p2196
tp2197
a(Vnorth side
p2198
Vnorth side
p2199
tp2200
a(Vfifth
p2201
Vfifth
p2202
tp2203
a(Vwightman hays
p2204
Vwightman hays
p2205
tp2206
a(Vpenn avenue at highland
p2207
Vpenn avenue at highland
p2208
tp2209
a(Vthirty eighth and penn
p2210
Vthirty eighth and penn
p2211
tp2212
a(Vwood
p2213
Vwood
p2214
tp2215
a(Vgrant at seventh
p2216
Vgrant at seventh
p2217
tp2218
a(Vmain and leslie
p2219
Vmain and leslie
p2220
tp2221
a(Vseventh and ann
p2222
Vseventh and ann
p2223
tp2224
a(Vfairview
p2225
Vfairview
p2226
tp2227
a(Vbausman and brownsville
p2228
Vbausman and brownsville
p2229
tp2230
a(Vkathleen street
p2231
Vkathleen street
p2232
tp2233
a(Vhomestead
p2234
Vhomestead
p2235
tp2236
a(Vbrighton and ridge
p2237
Vbrighton and ridge
p2238
tp2239
a(Vthirty first and penn
p2240
Vthirty first and penn
p2241
tp2242
a(Vseventh at ann
p2243
Vseventh at ann
p2244
tp2245
a(Vmiffin at beggs
p2246
Vmiffin at beggs
p2247
tp2248
a(Vhobart and murray
p2249
Vhobart and murray
p2250
tp2251
a(Vduquesne university
p2252
Vduquesne university
p2253
tp2254
a(Vfifth and shady
p2255
Vfifth and shady
p2256
tp2257
a(Veighteenth
p2258
Veighteenth
p2259
tp2260
a(Vfederal
p2261
Vfederal
p2262
tp2263
a(Vforbes and pride
p2264
Vforbes and pride
p2265
tp2266
a(Vknoxville
p2267
Vknoxville
p2268
tp2269
a(Vbayard
p2270
Vbayard
p2271
tp2272
a(Vmifflin at beggs
p2273
Vmifflin at beggs
p2274
tp2275
a(Vmall and jones
p2276
Vmall and jones
p2277
tp2278
a(Vtwenty second
p2279
Vtwenty second
p2280
tp2281
a(Vliberty and ella
p2282
Vliberty and ella
p2283
tp2284
a(Veighth at liberty
p2285
Veighth at liberty
p2286
tp2287
a(Vmurdoch at forbes
p2288
Vmurdoch at forbes
p2289
tp2290
a(Veast ohio green tree
p2291
Veast ohio green tree
p2292
tp2293
a(Vfourth and mound
p2294
Vfourth and mound
p2295
tp2296
a(Vdickson at noble
p2297
Vdickson at noble
p2298
tp2299
a(Vbrownsville road and marland
p2300
Vbrownsville road and marland
p2301
tp2302
a(Vsouth side
p2303
Vsouth side
p2304
tp2305
a(Vherron at ruthven
p2306
Vherron at ruthven
p2307
tp2308
a(Vduquesne at fourth
p2309
Vduquesne at fourth
p2310
tp2311
a(Vlincoln boro
p2312
Vlincoln boro
p2313
tp2314
a(Vcrawford court
p2315
Vcrawford court
p2316
tp2317
a(Vtenth avenue
p2318
Vtenth avenue
p2319
tp2320
a(Vmonterey rankin
p2321
Vmonterey rankin
p2322
tp2323
a(Vhuey at fifth
p2324
Vhuey at fifth
p2325
tp2326
a(Vcamp hollow
p2327
Vcamp hollow
p2328
tp2329
a(Vpitt at south
p2330
Vpitt at south
p2331
tp2332
a(Vrebecca street
p2333
Vrebecca street
p2334
tp2335
a(Voliver
p2336
Voliver
p2337
tp2338
a(Vwest
p2339
Vwest
p2340
tp2341
a(Vshady at highmont
p2342
Vshady at highmont
p2343
tp2344
a(Vmurray and arlington
p2345
Vmurray and arlington
p2346
tp2347
a(Vgalveston and ridge
p2348
Vgalveston and ridge
p2349
tp2350
a(Veat'n park
p2351
Veat'n park
p2352
tp2353
a(Vnorth versailles
p2354
Vnorth versailles
p2355
tp2356
a(Vbessemer avenue
p2357
Vbessemer avenue
p2358
tp2359
a(Vforbes at peebles
p2360
Vforbes at peebles
p2361
tp2362
a(Vfifth and ross
p2363
Vfifth and ross
p2364
tp2365
a(Vfifth and smithfield
p2366
Vfifth and smithfield
p2367
tp2368
a(Vloretta at murray
p2369
Vloretta at murray
p2370
tp2371
a(Vrusselton
p2372
Vrusselton
p2373
tp2374
a(Vwest penn hospital
p2375
Vwest penn hospital
p2376
tp2377
a(Vsixteenth at liberty
p2378
Vsixteenth at liberty
p2379
tp2380
a(Vshady kennedy
p2381
Vshady kennedy
p2382
tp2383
a(Vmurray and hobart
p2384
Vmurray and hobart
p2385
tp2386
a(Vmeyran avenue
p2387
Vmeyran avenue
p2388
tp2389
a(Vmiddle
p2390
Vmiddle
p2391
tp2392
a(Vbeaver
p2393
Vbeaver
p2394
tp2395
a(Vwaterfront and terminus
p2396
Vwaterfront and terminus
p2397
tp2398
a(Vallegheny
p2399
Vallegheny
p2400
tp2401
a(Vforbes at bouquet
p2402
Vforbes at bouquet
p2403
tp2404
a(Vbraddock hills
p2405
Vbraddock hills
p2406
tp2407
a(Vchildren 's hospital
p2408
Vchildren's hospital
p2409
tp2410
a(Vfulton and north
p2411
Vfulton and north
p2412
tp2413
a(Veighth at centre
p2414
Veighth at centre
p2415
tp2416
a(Vhazelwood
p2417
Vhazelwood
p2418
tp2419
a(Vsewickley
p2420
Vsewickley
p2421
tp2422
a(Vshady street
p2423
Vshady street
p2424
tp2425
a(Vthe transportation center
p2426
Vthe transportation center
p2427
tp2428
a(Vwest carrick
p2429
Vwest carrick
p2430
tp2431
a(Vhalket and fifth
p2432
Vhalket and fifth
p2433
tp2434
a(Vforbes and halket
p2435
Vforbes and halket
p2436
tp2437
a(Vlysle at huey
p2438
Vlysle at huey
p2439
tp2440
a(Vpennsylvania
p2441
Vpennsylvania
p2442
tp2443
a(Vcraig at fifth wall
p2444
Vcraig at fifth wall
p2445
tp2446
a(Vmain at fulton avenue
p2447
Vmain at fulton avenue
p2448
tp2449
a(Vkelly at west
p2450
Vkelly at west
p2451
tp2452
a(Vpitt and kelly
p2453
Vpitt and kelly
p2454
tp2455
a(Vperrysville marshall
p2456
Vperrysville marshall
p2457
tp2458
a(Vninth
p2459
Vninth
p2460
tp2461
a(Vbaldwin
p2462
Vbaldwin
p2463
tp2464
a(Vhalfway
p2465
Vhalfway
p2466
tp2467
a(Vcentre avenue and melwood avenue
p2468
Vcentre avenue and melwood avenue
p2469
tp2470
a(Vlysle and evans
p2471
Vlysle and evans
p2472
tp2473
a(Vwood at liberty
p2474
Vwood at liberty
p2475
tp2476
a(Vtenth at ann
p2477
Vtenth at ann
p2478
tp2479
a(Vcraig street and forbes
p2480
Vcraig street and forbes
p2481
tp2482
a(Vmurray avenue and lilac street
p2483
Vmurray avenue and lilac street
p2484
tp2485
a(Vross
p2486
Vross
p2487
tp2488
a(Vjohnny 's bar
p2489
Vjohnny's bar
p2490
tp2491
a(Vwalnut at coal
p2492
Vwalnut at coal
p2493
tp2494
a(Vtenth and ann center
p2495
Vtenth and ann center
p2496
tp2497
a(Veighth moon
p2498
Veighth moon
p2499
tp2500
a(Vfulton and main
p2501
Vfulton and main
p2502
tp2503
a(Vrebecca
p2504
Vrebecca
p2505
tp2506
a(Vfifth at highland
p2507
Vfifth at highland
p2508
tp2509
a(Vcamfield at calle
p2510
Vcamfield at calle
p2511
tp2512
a(Vthe strip
p2513
Vthe strip
p2514
tp2515
a(Veighth at dickson
p2516
Veighth at dickson
p2517
tp2518
a(Vkennedy
p2519
Vkennedy
p2520
tp2521
a(Vbeechwood
p2522
Vbeechwood
p2523
tp2524
a(Vpenn and shaw
p2525
Vpenn and shaw
p2526
tp2527
a(Vlincoln way
p2528
Vlincoln way
p2529
tp2530
a(Veighth at ann
p2531
Veighth at ann
p2532
tp2533
a(Vlebanon
p2534
Vlebanon
p2535
tp2536
a(Veighth at heisel
p2537
Veighth at heisel
p2538
tp2539
a(Visland and preble
p2540
Visland and preble
p2541
tp2542
a(Vfrank at greenfield
p2543
Vfrank at greenfield
p2544
tp2545
a(Vrocks
p2546
Vrocks
p2547
tp2548
a(Vmagee hospital
p2549
Vmagee hospital
p2550
tp2551
a(Vgreenfield and beehner
p2552
Vgreenfield and beehner
p2553
tp2554
a(Vharriett and miller
p2555
Vharriett and miller
p2556
tp2557
a(Vgreenfield at frank
p2558
Vgreenfield at frank
p2559
tp2560
a(Vsouth and peebles wall
p2561
Vsouth and peebles wall
p2562
tp2563
a(Vmoon
p2564
Vmoon
p2565
tp2566
a(Vpioneer
p2567
Vpioneer
p2568
tp2569
a(Vcarnegie library
p2570
Vcarnegie library
p2571
tp2572
a(Vforbes and atwood
p2573
Vforbes and atwood
p2574
tp2575
a(Vbraddock ave
p2576
Vbraddock ave
p2577
tp2578
a(Vguthrie and braddock
p2579
Vguthrie and braddock
p2580
tp2581
a(Vsixth
p2582
Vsixth
p2583
tp2584
a(Vsouth braddock in wall
p2585
Vsouth braddock in wall
p2586
tp2587
a(Vbrighton
p2588
Vbrighton
p2589
tp2590
a(Visland
p2591
Visland
p2592
tp2593
a(Vella at liberty
p2594
Vella at liberty
p2595
tp2596
a(Vjohnston
p2597
Vjohnston
p2598
tp2599
a(Vmarriott
p2600
Vmarriott
p2601
tp2602
a(Vcurry reserve township
p2603
Vcurry reserve township
p2604
tp2605
a(Vnorth at federal
p2606
Vnorth at federal
p2607
tp2608
a(Vwoodstock and braddock
p2609
Vwoodstock and braddock
p2610
tp2611
a(Vbraddock avenue
p2612
Vbraddock avenue
p2613
tp2614
a(Varlington and john
p2615
Varlington and john
p2616
tp2617
a(Vmcdevitt at forbes
p2618
Vmcdevitt at forbes
p2619
tp2620
a(Vstrip
p2621
Vstrip
p2622
tp2623
a(Vuptown
p2624
Vuptown
p2625
tp2626
a(Vross ross
p2627
Vross ross
p2628
tp2629
a(Vphiladelphia
p2630
Vphiladelphia
p2631
tp2632
a(Vverona wall
p2633
Vverona wall
p2634
tp2635
a(Vridge and arch
p2636
Vridge and arch
p2637
tp2638
a(Vaiken street
p2639
Vaiken street
p2640
tp2641
a(Vschenley park
p2642
Vschenley park
p2643
tp2644
a(Vliberty and main
p2645
Vliberty and main
p2646
tp2647
a(Vpenn at ninth
p2648
Vpenn at ninth
p2649
tp2650
a(Vstation square
p2651
Vstation square
p2652
tp2653
a(Vlincoln place
p2654
Vlincoln place
p2655
tp2656
a(Vmurray and forbes
p2657
Vmurray and forbes
p2658
tp2659
a(Vann at bell
p2660
Vann at bell
p2661
tp2662
a(Vwendover and beacon
p2663
Vwendover and beacon
p2664
tp2665
a(Vedgewood at braddock
p2666
Vedgewood at braddock
p2667
tp2668
a(Vrodi road
p2669
Vrodi road
p2670
tp2671
a(Vshady and negley
p2672
Vshady and negley
p2673
tp2674
a(Vfourth wall
p2675
Vfourth wall
p2676
tp2677
a(Vforbes and devon
p2678
Vforbes and devon
p2679
tp2680
a(Veast avenue
p2681
Veast avenue
p2682
tp2683
a(Vseneca and fifth
p2684
Vseneca and fifth
p2685
tp2686
a(Vallentown
p2687
Vallentown
p2688
tp2689
a(Vdynamo way
p2690
Vdynamo way
p2691
tp2692
a(Vharding and dobson
p2693
Vharding and dobson
p2694
tp2695
a(Vtalbot at eighth
p2696
Vtalbot at eighth
p2697
tp2698
a(Vcommonwealth and duquesne
p2699
Vcommonwealth and duquesne
p2700
tp2701
a(Vmarriott arnold
p2702
Vmarriott arnold
p2703
tp2704
a(Vfifth center
p2705
Vfifth center
p2706
tp2707
a(Vphillips and murray
p2708
Vphillips and murray
p2709
tp2710
a(Vswissvale station
p2711
Vswissvale station
p2712
tp2713
a(Vbell station
p2714
Vbell station
p2715
tp2716
a(Vpittsburgh zoo
p2717
Vpittsburgh zoo
p2718
tp2719
a(Vcraig street
p2720
Vcraig street
p2721
tp2722
a(Veighth neville
p2723
Veighth neville
p2724
tp2725
a(Vmayview
p2726
Vmayview
p2727
tp2728
a(Vgreen meadows
p2729
Vgreen meadows
p2730
tp2731
a(Vpenn at twenty eighth
p2732
Vpenn at twenty eighth
p2733
tp2734
a(Vann and tenth
p2735
Vann and tenth
p2736
tp2737
a(Vregent square
p2738
Vregent square
p2739
tp2740
a(Valice and camfield
p2741
Valice and camfield
p2742
tp2743
a(Vliverpool at manhattan
p2744
Vliverpool at manhattan
p2745
tp2746
a(Vfourth and bell
p2747
Vfourth and bell
p2748
tp2749
a(Vhuey and petty
p2750
Vhuey and petty
p2751
tp2752
a(Vnorth and manhattan
p2753
Vnorth and manhattan
p2754
tp2755
a(Vsmithfield
p2756
Vsmithfield
p2757
tp2758
a(Vlarge
p2759
Vlarge
p2760
tp2761
a(Vpenn and thirty eighth
p2762
Vpenn and thirty eighth
p2763
tp2764
a(Veast carson
p2765
Veast carson
p2766
tp2767
a(Vfifth and penn
p2768
Vfifth and penn
p2769
tp2770
a(Vwest liberty
p2771
Vwest liberty
p2772
tp2773
a(Vbraddock at biddle
p2774
Vbraddock at biddle
p2775
tp2776
a(Vnorth and cedar
p2777
Vnorth and cedar
p2778
tp2779
a(Vwood avenue
p2780
Vwood avenue
p2781
tp2782
a(Vatwood at forbes
p2783
Vatwood at forbes
p2784
tp2785
a(Vbrownsville and boggs
p2786
Vbrownsville and boggs
p2787
tp2788
a(Vtransportation center
p2789
Vtransportation center
p2790
tp2791
a(Vbell avenue at ann
p2792
Vbell avenue at ann
p2793
tp2794
a(Vliberty and millvale
p2795
Vliberty and millvale
p2796
tp2797
a(Vcedar at north
p2798
Vcedar at north
p2799
tp2800
a(Vbailie
p2801
Vbailie
p2802
tp2803
a(Vmurray and eighteenth
p2804
Vmurray and eighteenth
p2805
tp2806
a(Vwest and fifteenth
p2807
Vwest and fifteenth
p2808
tp2809
a(Vthackeray and fifth
p2810
Vthackeray and fifth
p2811
tp2812
a(Vbeacon
p2813
Vbeacon
p2814
tp2815
a(Vgreen tree road
p2816
Vgreen tree road
p2817
tp2818
a(Vholiday inn
p2819
Vholiday inn
p2820
tp2821
a(Vmount washington
p2822
Vmount washington
p2823
tp2824
a(Vwillow at bailie
p2825
Vwillow at bailie
p2826
tp2827
a(Vpitt street
p2828
Vpitt street
p2829
tp2830
a(Vpark manor boulevard
p2831
Vpark manor boulevard
p2832
tp2833
a(Vkenmawr
p2834
Vkenmawr
p2835
tp2836
a(Veast ohio street
p2837
Veast ohio street
p2838
tp2839
a(Vairport
p2840
Vairport
p2841
tp2842
a(Vfifth and wood
p2843
Vfifth and wood
p2844
tp2845
a(Vmillvale and liberty
p2846
Vmillvale and liberty
p2847
tp2848
a(Vmillvale and centre
p2849
Vmillvale and centre
p2850
tp2851
a(Vglenshaw
p2852
Vglenshaw
p2853
tp2854
a(Vcenter center
p2855
Vcenter center
p2856
tp2857
a(Vcarson street
p2858
Vcarson street
p2859
tp2860
a(Vsteps at linden
p2861
Vsteps at linden
p2862
tp2863
a(Vfourth and duquesne
p2864
Vfourth and duquesne
p2865
tp2866
a(Vseventeenth
p2867
Vseventeenth
p2868
tp2869
a(Vbanksville
p2870
Vbanksville
p2871
tp2872
a(Vboulevard of allies
p2873
Vboulevard of allies
p2874
tp2875
a(Vmcknight road
p2876
Vmcknight road
p2877
tp2878
a(Vwood and fifth street
p2879
Vwood and fifth street
p2880
tp2881
a(Vbairdsford
p2882
Vbairdsford
p2883
tp2884
a(Vbraddock and talbot
p2885
Vbraddock and talbot
p2886
tp2887
a(Vcaste village
p2888
Vcaste village
p2889
tp2890
a(Vfrankstown
p2891
Vfrankstown
p2892
tp2893
a(Veighth at grant
p2894
Veighth at grant
p2895
tp2896
a(Vwelfer and duquesne boulevard
p2897
Vwelfer and duquesne boulevard
p2898
tp2899
a(Vmckee at forbes
p2900
Vmckee at forbes
p2901
tp2902
a(Vforbes and dithridge
p2903
Vforbes and dithridge
p2904
tp2905
a(Vhawkins and forbes
p2906
Vhawkins and forbes
p2907
tp2908
a(Vmiffin
p2909
Vmiffin
p2910
tp2911
a(Vbrownsville road and bausman
p2912
Vbrownsville road and bausman
p2913
tp2914
a(Vlincoln avenue wall
p2915
Vlincoln avenue wall
p2916
tp2917
a(Vfifth and pride
p2918
Vfifth and pride
p2919
tp2920
a(Vbeaver and kroll
p2921
Vbeaver and kroll
p2922
tp2923
a(Vkenmawr at rankin
p2924
Vkenmawr at rankin
p2925
tp2926
a(Vtown
p2927
Vtown
p2928
tp2929
a(Vforbes and grant
p2930
Vforbes and grant
p2931
tp2932
a(Vbell boulevard
p2933
Vbell boulevard
p2934
tp2935
a(Vohara
p2936
Vohara
p2937
tp2938
a(Vmall
p2939
Vmall
p2940
tp2941
a(Vmorgan
p2942
Vmorgan
p2943
tp2944
a(Vcentre avenue and elm
p2945
Vcentre avenue and elm
p2946
tp2947
a(Vdickson at noble kennedy
p2948
Vdickson at noble kennedy
p2949
tp2950
a(Vmall moon
p2951
Vmall moon
p2952
tp2953
a(Vfifth ave neville
p2954
Vfifth ave neville
p2955
tp2956
a(Vforbes avenue and magee
p2957
Vforbes avenue and magee
p2958
tp2959
a(Vwal-mart
p2960
Vwal-mart
p2961
tp2962
a(Vwalnut collier
p2963
Vwalnut collier
p2964
tp2965
a(Vpenn center
p2966
Vpenn center
p2967
tp2968
a(Veighth and ravine
p2969
Veighth and ravine
p2970
tp2971
a(Vrobinson
p2972
Vrobinson
p2973
tp2974
a(Vthe bank
p2975
Vthe bank
p2976
tp2977
a(Vcraft street
p2978
Vcraft street
p2979
tp2980
a(Vbraddock avenue carrick
p2981
Vbraddock avenue carrick
p2982
tp2983
a(Vthirty second and penn
p2984
Vthirty second and penn
p2985
tp2986
a(Vbell in moon
p2987
Vbell in moon
p2988
tp2989
a(Vmckee and forbes
p2990
Vmckee and forbes
p2991
tp2992
a(Vdelaware and edgewood
p2993
Vdelaware and edgewood
p2994
tp2995
a(Vshaefers
p2996
Vshaefers
p2997
tp2998
a(Vgreensburg pike
p2999
Vgreensburg pike
p3000
tp3001
a(Vclairton
p3002
Vclairton
p3003
tp3004
a(Vfifth at harriett
p3005
Vfifth at harriett
p3006
tp3007
a(Vshady
p3008
Vshady
p3009
tp3010
a(Vcoal
p3011
Vcoal
p3012
tp3013
a(Vbessemer and linden
p3014
Vbessemer and linden
p3015
tp3016
a(Vuniversity of pittsburgh
p3017
Vuniversity of pittsburgh
p3018
tp3019
a(Vfifth and evans
p3020
Vfifth and evans
p3021
tp3022
a(Vthe hill
p3023
Vthe hill
p3024
tp3025
a(Vscott
p3026
Vscott
p3027
tp3028
a(Vtwenty second and carson
p3029
Vtwenty second and carson
p3030
tp3031
a(Vbroadway
p3032
Vbroadway
p3033
tp3034
a(Vdallas avenue
p3035
Vdallas avenue
p3036
tp3037
a(Vvincent and warrington
p3038
Vvincent and warrington
p3039
tp3040
a(Valma and haldane
p3041
Valma and haldane
p3042
tp3043
a(Vunity
p3044
Vunity
p3045
tp3046
a(Veighteenth and arlington
p3047
Veighteenth and arlington
p3048
tp3049
a(Vpenn
p3050
Vpenn
p3051
tp3052
a(Vgeorgia at charles
p3053
Vgeorgia at charles
p3054
tp3055
a(Vbeaver and north
p3056
Vbeaver and north
p3057
tp3058
a(Veast carson and twenty second street
p3059
Veast carson and twenty second street
p3060
tp3061
a(Vliberty t station
p3062
Vliberty t station
p3063
tp3064
a(Vwightman and beacon
p3065
Vwightman and beacon
p3066
tp3067
a(Vpittsburgh p a
p3068
Vpittsburgh p a
p3069
tp3070
a(Vevans at lamont
p3071
Vevans at lamont
p3072
tp3073
a(Vcentre and craig
p3074
Vcentre and craig
p3075
tp3076
a(Vbrighton street
p3077
Vbrighton street
p3078
tp3079
a(Vsouth and pitt
p3080
Vsouth and pitt
p3081
tp3082
a(Vmarket at forbes
p3083
Vmarket at forbes
p3084
tp3085
a(Vfifth at bigelow
p3086
Vfifth at bigelow
p3087
tp3088
a(Vtenth and amity
p3089
Vtenth and amity
p3090
tp3091
a(Vsmithfield and fifth
p3092
Vsmithfield and fifth
p3093
tp3094
a(Vkennywood park
p3095
Vkennywood park
p3096
tp3097
a(Vplum boro
p3098
Vplum boro
p3099
tp3100
a(Vpennsbury
p3101
Vpennsbury
p3102
tp3103
a(Vmurray at forbes
p3104
Vmurray at forbes
p3105
tp3106
a(Vwood moon
p3107
Vwood moon
p3108
tp3109
a(Vforbes and wightman
p3110
Vforbes and wightman
p3111
tp3112
a(Vmorewood harwick
p3113
Vmorewood harwick
p3114
tp3115
a(Vronald and greenfield
p3116
Vronald and greenfield
p3117
tp3118
a(Vwaterfront drive
p3119
Vwaterfront drive
p3120
tp3121
a(Vavenue
p3122
Vavenue
p3123
tp3124
a(Vfifth avenue and market street
p3125
Vfifth avenue and market street
p3126
tp3127
a(Vwashington and fifth
p3128
Vwashington and fifth
p3129
tp3130
a(Vnoble street
p3131
Vnoble street
p3132
tp3133
a(Vfranklin at wood
p3134
Vfranklin at wood
p3135
tp3136
a(Vdowntown pittsburgh
p3137
Vdowntown pittsburgh
p3138
tp3139
a(Vhulton
p3140
Vhulton
p3141
tp3142
a(Vpolk and lebanon church road
p3143
Vpolk and lebanon church road
p3144
tp3145
a(Vbessemer street
p3146
Vbessemer street
p3147
tp3148
a(Varlington
p3149
Varlington
p3150
tp3151
a(Vreddour at north reserve
p3152
Vreddour at north reserve
p3153
tp3154
a(Vstation
p3155
Vstation
p3156
tp3157
a(Voverton and braddock
p3158
Voverton and braddock
p3159
tp3160
a(Vhotel
p3161
Vhotel
p3162
tp3163
a(Vjefferson hills
p3164
Vjefferson hills
p3165
tp3166
a(Vforward at murray
p3167
Vforward at murray
p3168
tp3169
a(Vpenn and main
p3170
Vpenn and main
p3171
tp3172
a(Vseventeenth ohara
p3173
Vseventeenth ohara
p3174
tp3175
a(Vgrace
p3176
Vgrace
p3177
tp3178
a(Vharmar
p3179
Vharmar
p3180
tp3181
a(Vbigelow
p3182
Vbigelow
p3183
tp3184
a(Vwightman and forbes
p3185
Vwightman and forbes
p3186
tp3187
a(Vcrescent
p3188
Vcrescent
p3189
tp3190
a(Vcarnegie mellon
p3191
Vcarnegie mellon
p3192
tp3193
a(Vgarfield
p3194
Vgarfield
p3195
tp3196
a(Vhalket at fifth
p3197
Vhalket at fifth
p3198
tp3199
a(Vlilac street
p3200
Vlilac street
p3201
tp3202
a(Vbeggs at mifflin
p3203
Vbeggs at mifflin
p3204
tp3205
a(Vamity at eighth
p3206
Vamity at eighth
p3207
tp3208
a(Vradisson
p3209
Vradisson
p3210
tp3211
a(Veast liberty
p3212
Veast liberty
p3213
tp3214
a(Vliberty at twenty eighth
p3215
Vliberty at twenty eighth
p3216
tp3217
a(Veighth at amity
p3218
Veighth at amity
p3219
tp3220
a(Vamanda at arlington
p3221
Vamanda at arlington
p3222
tp3223
a(Vmain and emerson
p3224
Vmain and emerson
p3225
tp3226
a(Vmurray and flemington
p3227
Vmurray and flemington
p3228
tp3229
a(Vcentre and negley
p3230
Vcentre and negley
p3231
tp3232
a(Vsouth at pitt
p3233
Vsouth at pitt
p3234
tp3235
a(Vfourth opposite mound
p3236
Vfourth opposite mound
p3237
tp3238
a(Vforbes at murray
p3239
Vforbes at murray
p3240
tp3241
a(Vcity view
p3242
Vcity view
p3243
tp3244
a(Vsecond and grant
p3245
Vsecond and grant
p3246
tp3247
a(Voliver plum
p3248
Voliver plum
p3249
tp3250
a(Veighth and grant
p3251
Veighth and grant
p3252
tp3253
a(Vnorth neville
p3254
Vnorth neville
p3255
tp3256
a(Vbartlett at wightman
p3257
Vbartlett at wightman
p3258
tp3259
a(Vduquesne village
p3260
Vduquesne village
p3261
tp3262
a(Vingram
p3263
Vingram
p3264
tp3265
a(Vkennywood carnegie
p3266
Vkennywood carnegie
p3267
tp3268
a(Veast ohio boulevard
p3269
Veast ohio boulevard
p3270
tp3271
a(Vthe mall
p3272
Vthe mall
p3273
tp3274
a(Vharwick
p3275
Vharwick
p3276
tp3277
a(Vheinz hall
p3278
Vheinz hall
p3279
tp3280
a(Vshaler
p3281
Vshaler
p3282
tp3283
a(Vbell avenue and curry
p3284
Vbell avenue and curry
p3285
tp3286
a(Vtwenty eighth at talbot
p3287
Vtwenty eighth at talbot
p3288
tp3289
a(Vfifth ohara
p3290
Vfifth ohara
p3291
tp3292
a(Vnorthview heights
p3293
Vnorthview heights
p3294
tp3295
a(Vhays duquesne
p3296
Vhays duquesne
p3297
tp3298
a(Vforbes at murdoch
p3299
Vforbes at murdoch
p3300
tp3301
a(Vhowley at main
p3302
Vhowley at main
p3303
tp3304
a(Vsouth eighteenth and east carson
p3305
Vsouth eighteenth and east carson
p3306
tp3307
a(Vbutler street
p3308
Vbutler street
p3309
tp3310
a(Vwood and wallace
p3311
Vwood and wallace
p3312
tp3313
a(Vnegley at ellsworth
p3314
Vnegley at ellsworth
p3315
tp3316
a(Vliberty boro
p3317
Vliberty boro
p3318
tp3319
a(Vetna
p3320
Vetna
p3321
tp3322
a(Vwoodstock at vernon
p3323
Vwoodstock at vernon
p3324
tp3325
a(Vmall center
p3326
Vmall center
p3327
tp3328
a(Vcraig at forbes
p3329
Vcraig at forbes
p3330
tp3331
a(Vmcdonald
p3332
Vmcdonald
p3333
tp3334
a(Vmain and grace
p3335
Vmain and grace
p3336
tp3337
a(Vmonterey moon
p3338
Vmonterey moon
p3339
tp3340
a(Vfifth reserve
p3341
Vfifth reserve
p3342
tp3343
a(Veighth at penn
p3344
Veighth at penn
p3345
tp3346
a(Vmiller and main
p3347
Vmiller and main
p3348
tp3349
a(Vbernd and bausman
p3350
Vbernd and bausman
p3351
tp3352
a(Vbell
p3353
Vbell
p3354
tp3355
a(Vdynamo shaefers
p3356
Vdynamo shaefers
p3357
tp3358
a(Veighth and talbot
p3359
Veighth and talbot
p3360
tp3361
a(Vann and bell
p3362
Vann and bell
p3363
tp3364
a(Vthirteenth and bell
p3365
Vthirteenth and bell
p3366
tp3367
a(Vmain and howley
p3368
Vmain and howley
p3369
tp3370
a(Vpenn and ninth
p3371
Vpenn and ninth
p3372
tp3373
a(Vfourth marshall
p3374
Vfourth marshall
p3375
tp3376
a(Vbaum and fifth avenue
p3377
Vbaum and fifth avenue
p3378
tp3379
a(Vsquirrel
p3380
Vsquirrel
p3381
tp3382
a(Vnegley
p3383
Vnegley
p3384
tp3385
a(Vjunction plum
p3386
Vjunction plum
p3387
tp3388
a(Vbraddock and edgewood
p3389
Vbraddock and edgewood
p3390
tp3391
a(Vpenn and highland
p3392
Vpenn and highland
p3393
tp3394
a(Vorchard and knox
p3395
Vorchard and knox
p3396
tp3397
a(Vfox chapel
p3398
Vfox chapel
p3399
tp3400
a(Vsteuben
p3401
Vsteuben
p3402
tp3403
a(Vshady avenue
p3404
Vshady avenue
p3405
tp3406
a(Vleslie and main
p3407
Vleslie and main
p3408
tp3409
a(Vwood at carson
p3410
Vwood at carson
p3411
tp3412
a(Vcentury
p3413
Vcentury
p3414
tp3415
a(Vallegheny center mall
p3416
Vallegheny center mall
p3417
tp3418
a(Vfifth avenue at highland
p3419
Vfifth avenue at highland
p3420
tp3421
a(Vbeechview
p3422
Vbeechview
p3423
tp3424
a(Vgrace street
p3425
Vgrace street
p3426
tp3427
a(Vcommerce drive
p3428
Vcommerce drive
p3429
tp3430
a(Vgrant
p3431
Vgrant
p3432
tp3433
a(Vmckee street
p3434
Vmckee street
p3435
tp3436
a(Vnorth and fulton
p3437
Vnorth and fulton
p3438
tp3439
a(Vsharpsburg
p3440
Vsharpsburg
p3441
tp3442
a(Vforbes and shady
p3443
Vforbes and shady
p3444
tp3445
a(Vmonroeville
p3446
Vmonroeville
p3447
tp3448
a(Vbeech and bailie
p3449
Vbeech and bailie
p3450
tp3451
a(Vstack
p3452
Vstack
p3453
tp3454
a(Vstranmore
p3455
Vstranmore
p3456
tp3457
a(Vmagee and fifth
p3458
Vmagee and fifth
p3459
tp3460
a(Vhuey and lysle
p3461
Vhuey and lysle
p3462
tp3463
a(Vdarlington and murray
p3464
Vdarlington and murray
p3465
tp3466
a(Vhowe
p3467
Vhowe
p3468
tp3469
a(Vfifth and murray
p3470
Vfifth and murray
p3471
tp3472
a(Vedgewood avenue at braddock
p3473
Vedgewood avenue at braddock
p3474
tp3475
a(Vfifth at mckee
p3476
Vfifth at mckee
p3477
tp3478
a(Vcenter hays
p3479
Vcenter hays
p3480
tp3481
a(Veighth ave
p3482
Veighth ave
p3483
tp3484
a(Vnoble
p3485
Vnoble
p3486
tp3487
a(Vlincoln park
p3488
Vlincoln park
p3489
tp3490
a(Vninth and penn
p3491
Vninth and penn
p3492
tp3493
a(Veighteenth at carson
p3494
Veighteenth at carson
p3495
tp3496
a(Vpitt lincoln
p3497
Vpitt lincoln
p3498
tp3499
a(Vdormont
p3500
Vdormont
p3501
tp3502
a(Vmiddle south park
p3503
Vmiddle south park
p3504
tp3505
a(Vhuey
p3506
Vhuey
p3507
tp3508
a(Vheidelberg
p3509
Vheidelberg
p3510
tp3511
a(Vforbes at bouquet moon
p3512
Vforbes at bouquet moon
p3513
tp3514
a(Vbraddock
p3515
Vbraddock
p3516
tp3517
a(Vwilkins
p3518
Vwilkins
p3519
tp3520
a(Vsouth hills junction dormont
p3521
Vsouth hills junction dormont
p3522
tp3523
a(Vmacy 's
p3524
Vmacy's
p3525
tp3526
a(Vwarrington avenue
p3527
Vwarrington avenue
p3528
tp3529
a(Vchesterfield at fifth
p3530
Vchesterfield at fifth
p3531
tp3532
a(Vcentre at trade
p3533
Vcentre at trade
p3534
tp3535
a(Vdraper at bell
p3536
Vdraper at bell
p3537
tp3538
a(Vpenn wall
p3539
Vpenn wall
p3540
tp3541
a(Vsouth hills junction
p3542
Vsouth hills junction
p3543
tp3544
a(Vmurray and burchfield
p3545
Vmurray and burchfield
p3546
tp3547
a(Vforbes bethel
p3548
Vforbes bethel
p3549
tp3550
a(Vfifth and lysle
p3551
Vfifth and lysle
p3552
tp3553
a(Vwest at eighth
p3554
Vwest at eighth
p3555
tp3556
a(Vmurray avenue
p3557
Vmurray avenue
p3558
tp3559
a(Vliberty and swissvale
p3560
Vliberty and swissvale
p3561
tp3562
a(Vfifth and chesterfield
p3563
Vfifth and chesterfield
p3564
tp3565
a(Vaiken avenue
p3566
Vaiken avenue
p3567
tp3568
a(Vliberty avenue
p3569
Vliberty avenue
p3570
tp3571
a(Veighth at west
p3572
Veighth at west
p3573
tp3574
a(Vbailie at beech
p3575
Vbailie at beech
p3576
tp3577
a(Vnegley at howe
p3578
Vnegley at howe
p3579
tp3580
a(Vwelfer street
p3581
Vwelfer street
p3582
tp3583
a(Vtenth center
p3584
Vtenth center
p3585
tp3586
a(Vrhine street
p3587
Vrhine street
p3588
tp3589
a(Vsaint clair
p3590
Vsaint clair
p3591
tp3592
a(Vmcdonald 's
p3593
Vmcdonald's
p3594
tp3595
a(Vmurray avenue at loretta street
p3596
Vmurray avenue at loretta street
p3597
tp3598
a(Vpennwood and wood
p3599
Vpennwood and wood
p3600
tp3601
a(Vsheraden
p3602
Vsheraden
p3603
tp3604
a(Vthe jewish community center
p3605
Vthe jewish community center
p3606
tp3607
a(Vthackeray and fifth avenue
p3608
Vthackeray and fifth avenue
p3609
tp3610
a(Veighteenth street
p3611
Veighteenth street
p3612
tp3613
a(Vtwenty second and carson street
p3614
Vtwenty second and carson street
p3615
tp3616
a(Vdynamo way and beech
p3617
Vdynamo way and beech
p3618
tp3619
a(Vforbes and peebles
p3620
Vforbes and peebles
p3621
tp3622
a(Vpenn and twenty ninth
p3623
Vpenn and twenty ninth
p3624
tp3625
a(Vforward
p3626
Vforward
p3627
tp3628
a(Vmorrowfield
p3629
Vmorrowfield
p3630
tp3631
a(Vfourth avenue
p3632
Vfourth avenue
p3633
tp3634
a(Vbeacon and wightman
p3635
Vbeacon and wightman
p3636
tp3637
a(Vmcclure
p3638
Vmcclure
p3639
tp3640
a(Vfifth and thackeray
p3641
Vfifth and thackeray
p3642
tp3643
a(Vstrip district
p3644
Vstrip district
p3645
tp3646
a(Vfifth and market
p3647
Vfifth and market
p3648
tp3649
a(Vliberty avenue and ella
p3650
Vliberty avenue and ella
p3651
tp3652
a(Vmcclure at eighth
p3653
Vmcclure at eighth
p3654
tp3655
a(Veast mifflin
p3656
Veast mifflin
p3657
tp3658
a(Vedgewood
p3659
Vedgewood
p3660
tp3661
a(Vfourth reserve
p3662
Vfourth reserve
p3663
tp3664
a(Vninth and ann
p3665
Vninth and ann
p3666
tp3667
a(Vnorth hill
p3668
Vnorth hill
p3669
tp3670
a(Vjones ross
p3671
Vjones ross
p3672
tp3673
a(Vhobart at murray
p3674
Vhobart at murray
p3675
tp3676
a(Vnoble at dickson
p3677
Vnoble at dickson
p3678
tp3679
a(Vpride street and forbes avenue
p3680
Vpride street and forbes avenue
p3681
tp3682
a(Vfulton and page
p3683
Vfulton and page
p3684
tp3685
a(Vwest view
p3686
Vwest view
p3687
tp3688
a(Vcherry city
p3689
Vcherry city
p3690
tp3691
a(Veleventh and woodlawn
p3692
Veleventh and woodlawn
p3693
tp3694
a(Vliberty hays
p3695
Vliberty hays
p3696
tp3697
a(Vjane street loop
p3698
Vjane street loop
p3699
tp3700
a(Vmckeesport transportation center
p3701
Vmckeesport transportation center
p3702
tp3703
a(Vpenn hill center
p3704
Vpenn hill center
p3705
tp3706
a(Vpenn hills
p3707
Vpenn hills
p3708
tp3709
a(Vpennwood at wood
p3710
Vpennwood at wood
p3711
tp3712
a(Vwhite oak
p3713
Vwhite oak
p3714
tp3715
a(Vross park mall
p3716
Vross park mall
p3717
tp3718
a(Vhaberman
p3719
Vhaberman
p3720
tp3721
a(Vmonterey
p3722
Vmonterey
p3723
tp3724
a(Vhampton
p3725
Vhampton
p3726
tp3727
a(Vwood and fifth
p3728
Vwood and fifth
p3729
tp3730
a(Vtarentum
p3731
Vtarentum
p3732
tp3733
a(Vpetty and huey
p3734
Vpetty and huey
p3735
tp3736
a(Vwestwood
p3737
Vwestwood
p3738
tp3739
a(Vmonongahela at whipple
p3740
Vmonongahela at whipple
p3741
tp3742
a(Vidlewood
p3743
Vidlewood
p3744
tp3745
a(Veast carson and twenty second
p3746
Veast carson and twenty second
p3747
tp3748
a(Vcraig at winthrop
p3749
Vcraig at winthrop
p3750
tp3751
a(Vmaryland
p3752
Vmaryland
p3753
tp3754
a(Vhomeville
p3755
Vhomeville
p3756
tp3757
a(Vwest opposite eighteenth
p3758
Vwest opposite eighteenth
p3759
tp3760
a(Vmagee at forbes
p3761
Vmagee at forbes
p3762
tp3763
a(Vhill avenue
p3764
Vhill avenue
p3765
tp3766
a(Vavalon
p3767
Vavalon
p3768
tp3769
a(Vsouth millvale
p3770
Vsouth millvale
p3771
tp3772
a(Vmiffin and beggs
p3773
Vmiffin and beggs
p3774
tp3775
a(Vwilmerding
p3776
Vwilmerding
p3777
tp3778
a(Vmorewood
p3779
Vmorewood
p3780
tp3781
a(Vturtle creek
p3782
Vturtle creek
p3783
tp3784
a(Vdiamond at sixth
p3785
Vdiamond at sixth
p3786
tp3787
a(Vlincoln avenue
p3788
Vlincoln avenue
p3789
tp3790
a(Vfifth and halket
p3791
Vfifth and halket
p3792
tp3793
a(Vmound and fourth
p3794
Vmound and fourth
p3795
tp3796
a(Vwood at fifth
p3797
Vwood at fifth
p3798
tp3799
a(Vlinden at cable
p3800
Vlinden at cable
p3801
tp3802
a(Vrobinson towne
p3803
Vrobinson towne
p3804
tp3805
a(Vhay and kelly
p3806
Vhay and kelly
p3807
tp3808
a(Vmonongahela avenue and whipple
p3809
Vmonongahela avenue and whipple
p3810
tp3811
a(Vridge avenue
p3812
Vridge avenue
p3813
tp3814
a(Vshaler township
p3815
Vshaler township
p3816
tp3817
a(Vamity street
p3818
Vamity street
p3819
tp3820
a(Vmillvale
p3821
Vmillvale
p3822
tp3823
a(Vbessemer
p3824
Vbessemer
p3825
tp3826
a(Vhazelwood at frank
p3827
Vhazelwood at frank
p3828
tp3829
a(Vindian
p3830
Vindian
p3831
tp3832
a(Voakmont
p3833
Voakmont
p3834
tp3835
a(Vhawkins avenue
p3836
Vhawkins avenue
p3837
tp3838
a(Vtwenty third
p3839
Vtwenty third
p3840
tp3841
a(Vwood in beltzhoover
p3842
Vwood in beltzhoover
p3843
tp3844
a(Vthe t station
p3845
Vthe t station
p3846
tp3847
a(Vhomeville road
p3848
Vhomeville road
p3849
tp3850
a(Vgrant at second
p3851
Vgrant at second
p3852
tp3853
a(Vmillvale at yew
p3854
Vmillvale at yew
p3855
tp3856
a(Vkennywood boulevard
p3857
Vkennywood boulevard
p3858
tp3859
a(Vhighland and fifth
p3860
Vhighland and fifth
p3861
tp3862
a(Vbausman
p3863
Vbausman
p3864
tp3865
a(Vmurray in harmar
p3866
Vmurray in harmar
p3867
tp3868
a(Vthe bridge
p3869
Vthe bridge
p3870
tp3871
a(Vpearl and liberty
p3872
Vpearl and liberty
p3873
tp3874
a(Vpenn and negley
p3875
Vpenn and negley
p3876
tp3877
a(Vbeaver and kroll street
p3878
Vbeaver and kroll street
p3879
tp3880
a(Vspringdale
p3881
Vspringdale
p3882
tp3883
a(Vforbes and morewood avenue
p3884
Vforbes and morewood avenue
p3885
tp3886
a(Vfifth avenue and highland
p3887
Vfifth avenue and highland
p3888
tp3889
a(Vwood in north homewood
p3890
Vwood in north homewood
p3891
tp3892
a(Vmagee pine
p3893
Vmagee pine
p3894
tp3895
a(Vbutler
p3896
Vbutler
p3897
tp3898
a(Vforbes at wood
p3899
Vforbes at wood
p3900
tp3901
a(Vmuldowney avenue
p3902
Vmuldowney avenue
p3903
tp3904
a(Vvalley heights
p3905
Vvalley heights
p3906
tp3907
a(Vherron
p3908
Vherron
p3909
tp3910
a(Vann and seventh
p3911
Vann and seventh
p3912
tp3913
a(Vpenn station center
p3914
Vpenn station center
p3915
tp3916
a(Vthirtieth and penn
p3917
Vthirtieth and penn
p3918
tp3919
a(Vmurray and darlington
p3920
Vmurray and darlington
p3921
tp3922
a(Vwaterworks mall
p3923
Vwaterworks mall
p3924
tp3925
a(Vbridgeville
p3926
Vbridgeville
p3927
tp3928
a(Vcastle shannon
p3929
Vcastle shannon
p3930
tp3931
a(Vhawkins and rose
p3932
Vhawkins and rose
p3933
tp3934
a(Vmonterey jefferson
p3935
Vmonterey jefferson
p3936
tp3937
a(Vlincoln way mckeesport
p3938
Vlincoln way mckeesport
p3939
tp3940
a(Vliberty opposite west penn
p3941
Vliberty opposite west penn
p3942
tp3943
a(Vcathedral of learning
p3944
Vcathedral of learning
p3945
tp3946
a(Vlysle and locust
p3947
Vlysle and locust
p3948
tp3949
a(Vrodi
p3950
Vrodi
p3951
tp3952
a(Vhill district
p3953
Vhill district
p3954
tp3955
a(Vmall hays
p3956
Vmall hays
p3957
tp3958
a(Vhilton
p3959
Vhilton
p3960
tp3961
a(Vsouthland shopping center
p3962
Vsouthland shopping center
p3963
tp3964
a(Vrebecca at swissvale avenue
p3965
Vrebecca at swissvale avenue
p3966
tp3967
a(Vthirty fourth and liberty
p3968
Vthirty fourth and liberty
p3969
tp3970
a(Voak hill
p3971
Voak hill
p3972
tp3973
a(Vrose and hawkins
p3974
Vrose and hawkins
p3975
tp3976
a(Vforbes at pride
p3977
Vforbes at pride
p3978
tp3979
a(Vkennywood mall
p3980
Vkennywood mall
p3981
tp3982
a(Vcentre avenue
p3983
Vcentre avenue
p3984
tp3985
a(Varch and ridge
p3986
Varch and ridge
p3987
tp3988
a(Vsquirrel hill
p3989
Vsquirrel hill
p3990
tp3991
a(Vmurray avenue at hazelwood avenue
p3992
Vmurray avenue at hazelwood avenue
p3993
tp3994
a(Vridge and brighton
p3995
Vridge and brighton
p3996
tp3997
a(Vmain and penn
p3998
Vmain and penn
p3999
tp4000
a(Vella and liberty
p4001
Vella and liberty
p4002
tp4003
a(Vhankey farms
p4004
Vhankey farms
p4005
tp4006
a(Vfifth at tennyson
p4007
Vfifth at tennyson
p4008
tp4009
a(Vmorningside
p4010
Vmorningside
p4011
tp4012
a(Vpenn at main
p4013
Vpenn at main
p4014
tp4015
a(Vfifth at wood
p4016
Vfifth at wood
p4017
tp4018
a(Voakland and fifth
p4019
Voakland and fifth
p4020
tp4021
a(Vhighland street
p4022
Vhighland street
p4023
tp4024
a(Vwelfer
p4025
Vwelfer
p4026
tp4027
a(Vcraig and centre avenue
p4028
Vcraig and centre avenue
p4029
tp4030
a(Vaiken
p4031
Vaiken
p4032
tp4033
a(Vclyde and fifth
p4034
Vclyde and fifth
p4035
tp4036
a(Vforbes avenue at murray
p4037
Vforbes avenue at murray
p4038
tp4039
a(Vnegley and howe
p4040
Vnegley and howe
p4041
tp4042
a(Vmount oliver
p4043
Vmount oliver
p4044
tp4045
a(Vmckees
p4046
Vmckees
p4047
tp4048
a(Vwalnut
p4049
Vwalnut
p4050
tp4051
a(Vridge opposite brighton
p4052
Vridge opposite brighton
p4053
tp4054
a(Vsouth side junction
p4055
Vsouth side junction
p4056
tp4057
a(Vwood morgan
p4058
Vwood morgan
p4059
tp4060
a(Vjunction
p4061
Vjunction
p4062
tp4063
a(Vwood street
p4064
Vwood street
p4065
tp4066
a(Vthe south hills junction
p4067
Vthe south hills junction
p4068
tp4069
a(Vforbes and bigelow
p4070
Vforbes and bigelow
p4071
tp4072
a(Vrebecca at coal
p4073
Vrebecca at coal
p4074
tp4075
a(Vambridge
p4076
Vambridge
p4077
tp4078
a(Vthe strip district
p4079
Vthe strip district
p4080
tp4081
a(Vnegley and negley house
p4082
Vnegley and negley house
p4083
tp4084
a(Vnegley avenue and walnut street
p4085
Vnegley avenue and walnut street
p4086
tp4087
a(Vmurray at hazelwood avenue
p4088
Vmurray at hazelwood avenue
p4089
tp4090
a(Vbon air
p4091
Vbon air
p4092
tp4093
a(Vnorth at fulton
p4094
Vnorth at fulton
p4095
tp4096
a(Vlilac
p4097
Vlilac
p4098
tp4099
a(Vboyd and forbes
p4100
Vboyd and forbes
p4101
tp4102
a(Vedgewood avenue
p4103
Vedgewood avenue
p4104
tp4105
a(Vpenn and fortieth
p4106
Vpenn and fortieth
p4107
tp4108
a(Vtenth
p4109
Vtenth
p4110
tp4111
a(Veastmont
p4112
Veastmont
p4113
tp4114
a(Vthe north side
p4115
Vthe north side
p4116
tp4117
a(Vpitcairn
p4118
Vpitcairn
p4119
tp4120
a(Vbaum boulevard
p4121
Vbaum boulevard
p4122
tp4123
a(Vfifth and atwood
p4124
Vfifth and atwood
p4125
tp4126
a(Valiquippa
p4127
Valiquippa
p4128
tp4129
a(Vsixth street
p4130
Vsixth street
p4131
tp4132
a(Vwightman
p4133
Vwightman
p4134
tp4135
a(Vfifth at millvale
p4136
Vfifth at millvale
p4137
tp4138
a(Vwyandotte
p4139
Vwyandotte
p4140
tp4141
a(Vsouth
p4142
Vsouth
p4143
tp4144
a(Vsixteenth and penn
p4145
Vsixteenth and penn
p4146
tp4147
a(Vevans at fifth
p4148
Vevans at fifth
p4149
tp4150
a(Vevans
p4151
Vevans
p4152
tp4153
a(Vfifth and craft
p4154
Vfifth and craft
p4155
tp4156
a(Vfranks
p4157
Vfranks
p4158
tp4159
a(Vmurray and forward
p4160
Vmurray and forward
p4161
tp4162
a(Vnatrona
p4163
Vnatrona
p4164
tp4165
a(Vwest view boro
p4166
Vwest view boro
p4167
tp4168
a(Vfifth at atwood
p4169
Vfifth at atwood
p4170
tp4171
a(Vshady and forbes
p4172
Vshady and forbes
p4173
tp4174
a(Vforward and murray
p4175
Vforward and murray
p4176
tp4177
a(Vfifth and oakland avenue
p4178
Vfifth and oakland avenue
p4179
tp4180
a(Vsixteenth
p4181
Vsixteenth
p4182
tp4183
a(Vcraig and fifth
p4184
Vcraig and fifth
p4185
tp4186
a(Vcentury three
p4187
Vcentury three
p4188
tp4189
a(Vcamfield at bandi
p4190
Vcamfield at bandi
p4191
tp4192
a(Vdynamo
p4193
Vdynamo
p4194
tp4195
a(Vperrysville
p4196
Vperrysville
p4197
tp4198
a(Vcommonwealth place
p4199
Vcommonwealth place
p4200
tp4201
a(Velizabeth sewickley
p4202
Velizabeth sewickley
p4203
tp4204
a(Vrankin boulevard and kenmawr
p4205
Vrankin boulevard and kenmawr
p4206
tp4207
a(Vforbes stowe
p4208
Vforbes stowe
p4209
tp4210
a(Vallegheny general hospital
p4211
Vallegheny general hospital
p4212
tp4213
a(Vpage at fulton
p4214
Vpage at fulton
p4215
tp4216
a(Vport authority
p4217
Vport authority
p4218
tp4219
a(Veighth street
p4220
Veighth street
p4221
tp4222
a(Vpenn and ninth in moon
p4223
Vpenn and ninth in moon
p4224
tp4225
a(Vmiddle crescent hills
p4226
Vmiddle crescent hills
p4227
tp4228
a(Vfifth avenue at mckee
p4229
Vfifth avenue at mckee
p4230
tp4231
a(Vchateau and adams
p4232
Vchateau and adams
p4233
tp4234
a(Vpleasant hills
p4235
Vpleasant hills
p4236
tp4237
a(Vamity
p4238
Vamity
p4239
tp4240
a(Vbeechwood boulevard
p4241
Vbeechwood boulevard
p4242
tp4243
a(Vyew at millvale
p4244
Vyew at millvale
p4245
tp4246
a(Vhuey and shaw
p4247
Vhuey and shaw
p4248
tp4249
a(Vwarrington
p4250
Vwarrington
p4251
tp4252
a(Vnegley avenue and centre hays
p4253
Vnegley avenue and centre hays
p4254
tp4255
a(Vmall stowe
p4256
Vmall stowe
p4257
tp4258
a(Vforbes at margaret morrison
p4259
Vforbes at margaret morrison
p4260
tp4261
a(Vforbes avenue ohara
p4262
Vforbes avenue ohara
p4263
tp4264
a(Vatwood
p4265
Vatwood
p4266
tp4267
a(Vfifth and huey
p4268
Vfifth and huey
p4269
tp4270
a(Vblawnox
p4271
Vblawnox
p4272
tp4273
a(Vcharles
p4274
Vcharles
p4275
tp4276
a(Vmurray street
p4277
Vmurray street
p4278
tp4279
a(Vforbes at grant
p4280
Vforbes at grant
p4281
tp4282
a(Vmanchester
p4283
Vmanchester
p4284
tp4285
a(Vjones at bell
p4286
Vjones at bell
p4287
tp4288
a(Vfifth at morewood
p4289
Vfifth at morewood
p4290
tp4291
a(Vliberty avenue at ella
p4292
Vliberty avenue at ella
p4293
tp4294
a(Vthe south side
p4295
Vthe south side
p4296
tp4297
a(Vsouth braddock avenue
p4298
Vsouth braddock avenue
p4299
tp4300
a(Vmiller and harriett
p4301
Vmiller and harriett
p4302
tp4303
a(Voverbrook
p4304
Voverbrook
p4305
tp4306
a(Vthe hilton
p4307
Vthe hilton
p4308
tp4309
a(Vfourth street
p4310
Vfourth street
p4311
tp4312
a(Vbigelow boulevard and fifth
p4313
Vbigelow boulevard and fifth
p4314
tp4315
a(Vlincoln road
p4316
Vlincoln road
p4317
tp4318
a(Vnorth braddock
p4319
Vnorth braddock
p4320
tp4321
a(Veighteenth at west
p4322
Veighteenth at west
p4323
tp4324
a(Vnorth avenue and fulton
p4325
Vnorth avenue and fulton
p4326
tp4327
a(Vforbes avenue
p4328
Vforbes avenue
p4329
tp4330
a(Vshady plum
p4331
Vshady plum
p4332
tp4333
a(Vcarnegie mellon university
p4334
Vcarnegie mellon university
p4335
tp4336
a(Vmurray avenue at loretta
p4337
Vmurray avenue at loretta
p4338
tp4339
a(Vohio
p4340
Vohio
p4341
tp4342
a(Vann street at eighth
p4343
Vann street at eighth
p4344
tp4345
a(Vsouth avenue
p4346
Vsouth avenue
p4347
tp4348
a(Vsixth and sinclair
p4349
Vsixth and sinclair
p4350
tp4351
a(Vmckees rocks
p4352
Vmckees rocks
p4353
tp4354
a(Vann and ninth
p4355
Vann and ninth
p4356
tp4357
a(Vhomewood
p4358
Vhomewood
p4359
tp4360
a(Vralph
p4361
Vralph
p4362
tp4363
a(Vpenn at thirtieth
p4364
Vpenn at thirtieth
p4365
tp4366
a(Vcedar in hays
p4367
Vcedar in hays
p4368
tp4369
a(Vmarshall township
p4370
Vmarshall township
p4371
tp4372
a(Vbrentwood
p4373
Vbrentwood
p4374
tp4375
a(Vlea and main
p4376
Vlea and main
p4377
tp4378
a(Veighteenth and carson
p4379
Veighteenth and carson
p4380
tp4381
a(Vmcclure and ninth
p4382
Vmcclure and ninth
p4383
tp4384
a(Vforbes and morewood
p4385
Vforbes and morewood
p4386
tp4387
a(Vallison park
p4388
Vallison park
p4389
tp4390
a(Vwest penn
p4391
Vwest penn
p4392
tp4393
a(Vmckee road
p4394
Vmckee road
p4395
tp4396
a(Vkelly at pitt
p4397
Vkelly at pitt
p4398
tp4399
a(Vbeaver at island
p4400
Vbeaver at island
p4401
tp4402
a(Vsouth side works
p4403
Vsouth side works
p4404
tp4405
a(Veighteenth and west
p4406
Veighteenth and west
p4407
tp4408
a(Vbrownsville at mckinley
p4409
Vbrownsville at mckinley
p4410
tp4411
a(Vmagee at fifth
p4412
Vmagee at fifth
p4413
tp4414
a(Vdraper and bell
p4415
Vdraper and bell
p4416
tp4417
a(Vnorth and beaver
p4418
Vnorth and beaver
p4419
tp4420
a(Vhighland
p4421
Vhighland
p4422
tp4423
a(Vshaw at huey
p4424
Vshaw at huey
p4425
tp4426
a(Vmall carrick
p4427
Vmall carrick
p4428
tp4429
a(Vwall
p4430
Vwall
p4431
tp4432
a(Vridge at arch
p4433
Vridge at arch
p4434
tp4435
a(Vmckee at fifth
p4436
Vmckee at fifth
p4437
tp4438
a(Vfifth and meyran
p4439
Vfifth and meyran
p4440
tp4441
a(Vamanda at charles
p4442
Vamanda at charles
p4443
tp4444
a(Voakland
p4445
Voakland
p4446
tp4447
a(Vellsworth
p4448
Vellsworth
p4449
tp4450
a(Vgreenfield and mccaslin
p4451
Vgreenfield and mccaslin
p4452
tp4453
a(Vhawkins
p4454
Vhawkins
p4455
tp4456
a(Vbigelow and forbes
p4457
Vbigelow and forbes
p4458
tp4459
a(Vcoal and hutchinson
p4460
Vcoal and hutchinson
p4461
tp4462
a(Vthirty third at penn
p4463
Vthirty third at penn
p4464
tp4465
a(Vnorth at sandusky
p4466
Vnorth at sandusky
p4467
tp4468
a(Veleventh at braddock
p4469
Veleventh at braddock
p4470
tp4471
a(Vforbes ave
p4472
Vforbes ave
p4473
tp4474
a(Vfifth and morewood
p4475
Vfifth and morewood
p4476
tp4477
a(Vbraddock hill
p4478
Vbraddock hill
p4479
tp4480
a(Vcraig and forbes
p4481
Vcraig and forbes
p4482
tp4483
a(Vhulton road
p4484
Vhulton road
p4485
tp4486
a(Vgarden city
p4487
Vgarden city
p4488
tp4489
a(Vmckeesport transportation
p4490
Vmckeesport transportation
p4491
tp4492
a(Vross street
p4493
Vross street
p4494
tp4495
a(Vlawrenceville
p4496
Vlawrenceville
p4497
tp4498
a(Vforbes wall
p4499
Vforbes wall
p4500
tp4501
a(Vherron wall
p4502
Vherron wall
p4503
tp4504
a(Vdickson and noble
p4505
Vdickson and noble
p4506
tp4507
a(Vbeacon at murdoch
p4508
Vbeacon at murdoch
p4509
tp4510
a(Vcarnegie
p4511
Vcarnegie
p4512
tp4513
a(Veast hills
p4514
Veast hills
p4515
tp4516
a(Vkenmawr and rankin
p4517
Vkenmawr and rankin
p4518
tp4519
a(Vharmarville
p4520
Vharmarville
p4521
tp4522
a(Vthirtieth and penn carrick
p4523
Vthirtieth and penn carrick
p4524
tp4525
a(Vliberty braddock hills
p4526
Vliberty braddock hills
p4527
tp4528
a(Vmurray at hazelwood
p4529
Vmurray at hazelwood
p4530
tp4531
a(Vbeltzhoover
p4532
Vbeltzhoover
p4533
tp4534
a(Vkennywood boulevard and hoffman
p4535
Vkennywood boulevard and hoffman
p4536
tp4537
a(Vikea
p4538
Vikea
p4539
tp4540
a(Veighth and ann
p4541
Veighth and ann
p4542
tp4543
a(Vfifth at craig
p4544
Vfifth at craig
p4545
tp4546
a(Vcenter
p4547
Vcenter
p4548
tp4549
a(Vtwentieth street
p4550
Vtwentieth street
p4551
tp4552
a(Vthirty seventh and penn
p4553
Vthirty seventh and penn
p4554
tp4555
a(Vwoodlawn at eleventh
p4556
Vwoodlawn at eleventh
p4557
tp4558
a(Vbloomfield
p4559
Vbloomfield
p4560
tp4561
a(Vhawkins and fourth
p4562
Vhawkins and fourth
p4563
tp4564
a(Vbellefield and fifth
p4565
Vbellefield and fifth
p4566
tp4567
a(Vtesla at bigelow
p4568
Vtesla at bigelow
p4569
tp4570
a(Vtalbot avenue
p4571
Vtalbot avenue
p4572
tp4573
a(Vnoble wall
p4574
Vnoble wall
p4575
tp4576
a(Veighth avenue
p4577
Veighth avenue
p4578
tp4579
a(Vnorth at arch
p4580
Vnorth at arch
p4581
tp4582
a(Vhawkins and second street
p4583
Vhawkins and second street
p4584
tp4585
a(Vforbes
p4586
Vforbes
p4587
tp4588
a(Vmorewood avenue
p4589
Vmorewood avenue
p4590
tp4591
a(Vversailles
p4592
Vversailles
p4593
tp4594
a(Vthe north hills
p4595
Vthe north hills
p4596
tp4597
a(Vcurry at hazelwood avenue
p4598
Vcurry at hazelwood avenue
p4599
tp4600
a(Vbrookline
p4601
Vbrookline
p4602
tp4603
a(Vcedar
p4604
Vcedar
p4605
tp4606
a(Vnorth fayette
p4607
Vnorth fayette
p4608
tp4609
a(Vlincoln
p4610
Vlincoln
p4611
tp4612
a(Vtennyson
p4613
Vtennyson
p4614
tp4615
a(Vfifth at liberty
p4616
Vfifth at liberty
p4617
tp4618
a(Vbon air eastmont
p4619
Vbon air eastmont
p4620
tp4621
a(Vwoodville
p4622
Vwoodville
p4623
tp4624
a(Vbaldwin township
p4625
Vbaldwin township
p4626
tp4627
a(Vlibrary
p4628
Vlibrary
p4629
tp4630
a(Vcraig stowe
p4631
Vcraig stowe
p4632
tp4633
a(Vharmarsville
p4634
Vharmarsville
p4635
tp4636
a(Vmccandless
p4637
Vmccandless
p4638
tp4639
a(Vaiken in center
p4640
Vaiken in center
p4641
tp4642
a(Vmurdoch
p4643
Vmurdoch
p4644
tp4645
a(Vshady and forward
p4646
Vshady and forward
p4647
tp4648
a(Vnew kensington
p4649
Vnew kensington
p4650
tp4651
a(Vbell at ann
p4652
Vbell at ann
p4653
tp4654
a(Vstowe
p4655
Vstowe
p4656
tp4657
a(Veighteenth and curry
p4658
Veighteenth and curry
p4659
tp4660
a(Vnoble at washington
p4661
Vnoble at washington
p4662
tp4663
a(Vhigh level bridge
p4664
Vhigh level bridge
p4665
tp4666
a(Voxford drive
p4667
Voxford drive
p4668
tp4669
a(Vfifth at brenham
p4670
Vfifth at brenham
p4671
tp4672
a(Vruthven at herron
p4673
Vruthven at herron
p4674
tp4675
a(Vbraddock at edgewood
p4676
Vbraddock at edgewood
p4677
tp4678
a(Vbeacon street
p4679
Vbeacon street
p4680
tp4681
a(Vforbes at morewood
p4682
Vforbes at morewood
p4683
tp4684
a(Vwest end
p4685
Vwest end
p4686
tp4687
a(Vcranberry
p4688
Vcranberry
p4689
tp4690
a(Vsheridan and fifth
p4691
Vsheridan and fifth
p4692
tp4693
a(Vsouth park
p4694
Vsouth park
p4695
tp4696
a(Varch at north south park
p4697
Varch at north south park
p4698
tp4699
a(Vwashington
p4700
Vwashington
p4701
tp4702
a(Vwest eighth at west seventh
p4703
Vwest eighth at west seventh
p4704
tp4705
a(Vnatrona heights
p4706
Vnatrona heights
p4707
tp4708
a(Vfifth avenue
p4709
Vfifth avenue
p4710
tp4711
a(Vimperial
p4712
Vimperial
p4713
tp4714
a(Veighth avenue at grant
p4715
Veighth avenue at grant
p4716
tp4717
a(Vnorth
p4718
Vnorth
p4719
tp4720
a(Veighth at andrew
p4721
Veighth at andrew
p4722
tp4723
a(Vgrant avenue
p4724
Vgrant avenue
p4725
tp4726
a(Vpitt fairview
p4727
Vpitt fairview
p4728
tp4729
a(Vthirtieth and brereton hays
p4730
Vthirtieth and brereton hays
p4731
tp4732
a(Vapollo
p4733
Vapollo
p4734
tp4735
a(Vtwenty eighth
p4736
Vtwenty eighth
p4737
tp4738
a(Vreserve township
p4739
Vreserve township
p4740
tp4741
a(Vbethel park
p4742
Vbethel park
p4743
tp4744
a(Vnegley avenue
p4745
Vnegley avenue
p4746
tp4747
a(Vtrafford
p4748
Vtrafford
p4749
tp4750
a(Vfifty fourth and fifth
p4751
Vfifty fourth and fifth
p4752
tp4753
a(Vsanders at braddock
p4754
Vsanders at braddock
p4755
tp4756
a(Vspring garden
p4757
Vspring garden
p4758
tp4759
a(Vgroveton
p4760
Vgroveton
p4761
tp4762
a(Vdravosburg
p4763
Vdravosburg
p4764
tp4765
a(Vuniversal
p4766
Vuniversal
p4767
tp4768
a(Vkennywood
p4769
Vkennywood
p4770
tp4771
a(Vnorth and brighton
p4772
Vnorth and brighton
p4773
tp4774
a(Vcollier
p4775
Vcollier
p4776
tp4777
a(Vswisshelm park
p4778
Vswisshelm park
p4779
tp4780
a(Voak
p4781
Voak
p4782
tp4783
a(Vtwenty fourth
p4784
Vtwenty fourth
p4785
tp4786
a(Vknox avenue
p4787
Vknox avenue
p4788
tp4789
a(Vmagee in harwick
p4790
Vmagee in harwick
p4791
tp4792
a(Vfifth at pride
p4793
Vfifth at pride
p4794
tp4795
a(Vshady avenue at forbes
p4796
Vshady avenue at forbes
p4797
tp4798
a(Vburrows street
p4799
Vburrows street
p4800
tp4801
a(Vfourth street and mound
p4802
Vfourth street and mound
p4803
tp4804
a(Vdynamo wall
p4805
Vdynamo wall
p4806
tp4807
a(Vmoon township
p4808
Vmoon township
p4809
tp4810
asVtime.minute
p4811
(lp4812
(I45
I45
tp4813
a(I35
I35
tp4814
a(I36
I36
tp4815
a(I38
I38
tp4816
a(I40
I40
tp4817
a(I10
I10
tp4818
a(I11
I11
tp4819
a(I13
I13
tp4820
a(I15
I15
tp4821
a(I50
I50
tp4822
a(I51
I51
tp4823
a(I20
I20
tp4824
a(I30
I30
tp4825
a(I31
I31
tp4826
a(Vforty five
p4827
I45
tp4828
a(Vthirty five
p4829
I35
tp4830
a(Vthirty six
p4831
I36
tp4832
a(Vthirty eight
p4833
I38
tp4834
a(Vforty
p4835
I40
tp4836
a(Vten
p4837
I10
tp4838
a(Veleven
p4839
I11
tp4840
a(Vthirteen
p4841
I13
tp4842
a(Vfifteen
p4843
I15
tp4844
a(Vfifty
p4845
I50
tp4846
a(Vfifty one
p4847
I51
tp4848
a(Vtwenty
p4849
I20
tp4850
a(Vthirty
p4851
I30
tp4852
a(Vthirty one
p4853
I31
tp4854
asVtime.hour
p4855
(lp4856
(I1
I1
tp4857
a(I2
I2
tp4858
a(I3
I3
tp4859
a(I4
I4
tp4860
a(I5
I5
tp4861
a(I6
I6
tp4862
a(I7
I7
tp4863
a(I8
I8
tp4864
a(I9
I9
tp4865
a(I10
I10
tp4866
a(I11
I11
tp4867
a(I12
I12
tp4868
a(Vone
p4869
I1
tp4870
a(Vtwo
p4871
I2
tp4872
a(Vthree
p4873
I3
tp4874
a(Vfour
p4875
I4
tp4876
a(Vfive
p4877
I5
tp4878
a(Vsix
p4879
I6
tp4880
a(Vseven
p4881
I7
tp4882
a(Veight
p4883
I8
tp4884
a(Vnine
p4885
I9
tp4886
a(g4837
I10
tp4887
a(g4839
I11
tp4888
a(Vtwelve
p4889
I12
tp4890
a(S'noon'
p4891
I12
tp4892
asVtime.ampm
p4893
(lp4894
(Vam
p4895
Vam
p4896
tp4897
a(Vpm
p4898
Vpm
p4899
tp4900
a(S'morning'
p4901
S'am'
p4902
tp4903
a(S'night'
p4904
S'pm'
p4905
tp4906
a(S'afternoon'
p4907
g4905
tp4908
a(S'tonight'
p4909
g4905
tp4910
a(S'evening'
p4911
g4905
tp4912
a(g4891
g4905
tp4913
as.